ARM GAS  C:\Users\Sava\AppData\Local\Temp\cc3h6qfP.s 			page 1


   1              		.syntax unified
   2              		.cpu cortex-m3
   3              		.fpu softvfp
   4              		.eabi_attribute 20, 1
   5              		.eabi_attribute 21, 1
   6              		.eabi_attribute 23, 3
   7              		.eabi_attribute 24, 1
   8              		.eabi_attribute 25, 1
   9              		.eabi_attribute 26, 1
  10              		.eabi_attribute 30, 1
  11              		.eabi_attribute 34, 1
  12              		.eabi_attribute 18, 4
  13              		.thumb
  14              		.syntax unified
  15              		.file	"GraphicLCDIntf.c"
  16              		.text
  17              	.Ltext0:
  18              		.cfi_sections	.debug_frame
  19              		.section	.text.GraphicLCDIntf_Enable,"ax",%progbits
  20              		.align	2
  21              		.global	GraphicLCDIntf_Enable
  22              		.thumb
  23              		.thumb_func
  24              		.type	GraphicLCDIntf_Enable, %function
  25              	GraphicLCDIntf_Enable:
  26              	.LFB0:
  27              		.file 1 "Generated_Source\\PSoC5\\GraphicLCDIntf.c"
   1:Generated_Source\PSoC5/GraphicLCDIntf.c **** /*******************************************************************************
   2:Generated_Source\PSoC5/GraphicLCDIntf.c **** * File Name: GraphicLCDIntf.c  
   3:Generated_Source\PSoC5/GraphicLCDIntf.c **** * Version 1.70
   4:Generated_Source\PSoC5/GraphicLCDIntf.c **** *
   5:Generated_Source\PSoC5/GraphicLCDIntf.c **** * Description:
   6:Generated_Source\PSoC5/GraphicLCDIntf.c **** *  This file contains the setup, control and status commands for the 
   7:Generated_Source\PSoC5/GraphicLCDIntf.c **** *  GraphicLCDIntf component.  
   8:Generated_Source\PSoC5/GraphicLCDIntf.c **** *
   9:Generated_Source\PSoC5/GraphicLCDIntf.c **** * Note: 
  10:Generated_Source\PSoC5/GraphicLCDIntf.c **** *
  11:Generated_Source\PSoC5/GraphicLCDIntf.c **** *******************************************************************************
  12:Generated_Source\PSoC5/GraphicLCDIntf.c **** * Copyright 2008-2012, Cypress Semiconductor Corporation.  All rights reserved.
  13:Generated_Source\PSoC5/GraphicLCDIntf.c **** * You may use this file only in accordance with the license, terms, conditions, 
  14:Generated_Source\PSoC5/GraphicLCDIntf.c **** * disclaimers, and limitations in the end user license agreement accompanying 
  15:Generated_Source\PSoC5/GraphicLCDIntf.c **** * the software package with which this file was provided.
  16:Generated_Source\PSoC5/GraphicLCDIntf.c **** ********************************************************************************/
  17:Generated_Source\PSoC5/GraphicLCDIntf.c **** 
  18:Generated_Source\PSoC5/GraphicLCDIntf.c **** #include "GraphicLCDIntf.h"  
  19:Generated_Source\PSoC5/GraphicLCDIntf.c **** 
  20:Generated_Source\PSoC5/GraphicLCDIntf.c **** uint8 GraphicLCDIntf_initVar = 0u;
  21:Generated_Source\PSoC5/GraphicLCDIntf.c **** 
  22:Generated_Source\PSoC5/GraphicLCDIntf.c **** 
  23:Generated_Source\PSoC5/GraphicLCDIntf.c **** /*******************************************************************************
  24:Generated_Source\PSoC5/GraphicLCDIntf.c **** * Function Name: GraphicLCDIntf_Enable
  25:Generated_Source\PSoC5/GraphicLCDIntf.c **** ********************************************************************************
  26:Generated_Source\PSoC5/GraphicLCDIntf.c **** *
  27:Generated_Source\PSoC5/GraphicLCDIntf.c **** * Summary:
  28:Generated_Source\PSoC5/GraphicLCDIntf.c **** *  There is no need to reset or enable this component.  This component is 
  29:Generated_Source\PSoC5/GraphicLCDIntf.c **** *  naturally a slave that waits for the API calls in order to perform any 
  30:Generated_Source\PSoC5/GraphicLCDIntf.c **** *  function and once a request is made that request will always complete in 
ARM GAS  C:\Users\Sava\AppData\Local\Temp\cc3h6qfP.s 			page 2


  31:Generated_Source\PSoC5/GraphicLCDIntf.c **** *  finite time as long as a clock is provided. The only thing that is provided
  32:Generated_Source\PSoC5/GraphicLCDIntf.c **** *  by this API is setting the Command FIFO to drive at least half empty status
  33:Generated_Source\PSoC5/GraphicLCDIntf.c **** *  from the FIFO.
  34:Generated_Source\PSoC5/GraphicLCDIntf.c **** *
  35:Generated_Source\PSoC5/GraphicLCDIntf.c **** * Parameters:
  36:Generated_Source\PSoC5/GraphicLCDIntf.c **** *  None.
  37:Generated_Source\PSoC5/GraphicLCDIntf.c **** *
  38:Generated_Source\PSoC5/GraphicLCDIntf.c **** * Return:
  39:Generated_Source\PSoC5/GraphicLCDIntf.c **** *  None.
  40:Generated_Source\PSoC5/GraphicLCDIntf.c **** *
  41:Generated_Source\PSoC5/GraphicLCDIntf.c **** *******************************************************************************/
  42:Generated_Source\PSoC5/GraphicLCDIntf.c **** void GraphicLCDIntf_Enable(void) 
  43:Generated_Source\PSoC5/GraphicLCDIntf.c **** {   
  28              		.loc 1 43 0
  29              		.cfi_startproc
  30              		@ args = 0, pretend = 0, frame = 0
  31              		@ frame_needed = 0, uses_anonymous_args = 0
  32              		@ link register save eliminated.
  33 0000 7047     		bx	lr
  34              		.cfi_endproc
  35              	.LFE0:
  36              		.size	GraphicLCDIntf_Enable, .-GraphicLCDIntf_Enable
  37 0002 00BF     		.section	.text.GraphicLCDIntf_Init,"ax",%progbits
  38              		.align	2
  39              		.global	GraphicLCDIntf_Init
  40              		.thumb
  41              		.thumb_func
  42              		.type	GraphicLCDIntf_Init, %function
  43              	GraphicLCDIntf_Init:
  44              	.LFB1:
  44:Generated_Source\PSoC5/GraphicLCDIntf.c ****     /* There aren't anything to enable */
  45:Generated_Source\PSoC5/GraphicLCDIntf.c **** }
  46:Generated_Source\PSoC5/GraphicLCDIntf.c **** 
  47:Generated_Source\PSoC5/GraphicLCDIntf.c **** 
  48:Generated_Source\PSoC5/GraphicLCDIntf.c **** /*******************************************************************************
  49:Generated_Source\PSoC5/GraphicLCDIntf.c **** * Function Name: GraphicLCDIntf_Init
  50:Generated_Source\PSoC5/GraphicLCDIntf.c **** ********************************************************************************
  51:Generated_Source\PSoC5/GraphicLCDIntf.c **** *
  52:Generated_Source\PSoC5/GraphicLCDIntf.c **** * Summary:
  53:Generated_Source\PSoC5/GraphicLCDIntf.c **** *  Inits/Restores default GraphicLCDIntf configuration provided with customizer
  54:Generated_Source\PSoC5/GraphicLCDIntf.c **** *
  55:Generated_Source\PSoC5/GraphicLCDIntf.c **** * Parameters:
  56:Generated_Source\PSoC5/GraphicLCDIntf.c **** *  None.
  57:Generated_Source\PSoC5/GraphicLCDIntf.c **** *
  58:Generated_Source\PSoC5/GraphicLCDIntf.c **** * Return:
  59:Generated_Source\PSoC5/GraphicLCDIntf.c **** *  None.
  60:Generated_Source\PSoC5/GraphicLCDIntf.c **** * 
  61:Generated_Source\PSoC5/GraphicLCDIntf.c **** *******************************************************************************/
  62:Generated_Source\PSoC5/GraphicLCDIntf.c **** void GraphicLCDIntf_Init(void) 
  63:Generated_Source\PSoC5/GraphicLCDIntf.c **** {
  45              		.loc 1 63 0
  46              		.cfi_startproc
  47              		@ args = 0, pretend = 0, frame = 0
  48              		@ frame_needed = 0, uses_anonymous_args = 0
  49              		@ link register save eliminated.
  64:Generated_Source\PSoC5/GraphicLCDIntf.c ****     /* Set low and high pulse widths for read transaction */
  65:Generated_Source\PSoC5/GraphicLCDIntf.c ****     GraphicLCDIntf_READ_LO_PULSE_REG = GraphicLCDIntf_READ_LOW_PULSE;
ARM GAS  C:\Users\Sava\AppData\Local\Temp\cc3h6qfP.s 			page 3


  50              		.loc 1 65 0
  51 0000 0022     		movs	r2, #0
  52 0002 034B     		ldr	r3, .L3
  53 0004 1A70     		strb	r2, [r3]
  66:Generated_Source\PSoC5/GraphicLCDIntf.c ****     GraphicLCDIntf_READ_HI_PULSE_REG = GraphicLCDIntf_READ_HIGH_PULSE;
  54              		.loc 1 66 0
  55 0006 0122     		movs	r2, #1
  56 0008 1033     		adds	r3, r3, #16
  57 000a 1A70     		strb	r2, [r3]
  58 000c 7047     		bx	lr
  59              	.L4:
  60 000e 00BF     		.align	2
  61              	.L3:
  62 0010 2A650040 		.word	1073767722
  63              		.cfi_endproc
  64              	.LFE1:
  65              		.size	GraphicLCDIntf_Init, .-GraphicLCDIntf_Init
  66              		.section	.text.GraphicLCDIntf_Start,"ax",%progbits
  67              		.align	2
  68              		.global	GraphicLCDIntf_Start
  69              		.thumb
  70              		.thumb_func
  71              		.type	GraphicLCDIntf_Start, %function
  72              	GraphicLCDIntf_Start:
  73              	.LFB2:
  67:Generated_Source\PSoC5/GraphicLCDIntf.c **** }
  68:Generated_Source\PSoC5/GraphicLCDIntf.c **** 
  69:Generated_Source\PSoC5/GraphicLCDIntf.c **** 
  70:Generated_Source\PSoC5/GraphicLCDIntf.c **** /*******************************************************************************
  71:Generated_Source\PSoC5/GraphicLCDIntf.c **** * Function Name: GraphicLCDIntf_Start
  72:Generated_Source\PSoC5/GraphicLCDIntf.c **** ********************************************************************************
  73:Generated_Source\PSoC5/GraphicLCDIntf.c **** *
  74:Generated_Source\PSoC5/GraphicLCDIntf.c **** * Summary:
  75:Generated_Source\PSoC5/GraphicLCDIntf.c **** *  Starts the GraphicLCDIntf interface.
  76:Generated_Source\PSoC5/GraphicLCDIntf.c **** *
  77:Generated_Source\PSoC5/GraphicLCDIntf.c **** * Parameters:
  78:Generated_Source\PSoC5/GraphicLCDIntf.c **** *  None.
  79:Generated_Source\PSoC5/GraphicLCDIntf.c **** *
  80:Generated_Source\PSoC5/GraphicLCDIntf.c **** * Return:
  81:Generated_Source\PSoC5/GraphicLCDIntf.c **** *  None.
  82:Generated_Source\PSoC5/GraphicLCDIntf.c **** *
  83:Generated_Source\PSoC5/GraphicLCDIntf.c **** * Global Variables:
  84:Generated_Source\PSoC5/GraphicLCDIntf.c **** *  GraphicLCDIntf_initVar - used to check initial configuration, modified on 
  85:Generated_Source\PSoC5/GraphicLCDIntf.c **** *  first function call.
  86:Generated_Source\PSoC5/GraphicLCDIntf.c **** *
  87:Generated_Source\PSoC5/GraphicLCDIntf.c **** * Reentrant:
  88:Generated_Source\PSoC5/GraphicLCDIntf.c **** *  No.
  89:Generated_Source\PSoC5/GraphicLCDIntf.c **** *
  90:Generated_Source\PSoC5/GraphicLCDIntf.c **** *******************************************************************************/
  91:Generated_Source\PSoC5/GraphicLCDIntf.c **** void GraphicLCDIntf_Start(void) 
  92:Generated_Source\PSoC5/GraphicLCDIntf.c **** {
  74              		.loc 1 92 0
  75              		.cfi_startproc
  76              		@ args = 0, pretend = 0, frame = 0
  77              		@ frame_needed = 0, uses_anonymous_args = 0
  78 0000 08B5     		push	{r3, lr}
  79              		.cfi_def_cfa_offset 8
ARM GAS  C:\Users\Sava\AppData\Local\Temp\cc3h6qfP.s 			page 4


  80              		.cfi_offset 3, -8
  81              		.cfi_offset 14, -4
  93:Generated_Source\PSoC5/GraphicLCDIntf.c ****     if (GraphicLCDIntf_initVar == 0u)
  82              		.loc 1 93 0
  83 0002 044B     		ldr	r3, .L8
  84 0004 1B78     		ldrb	r3, [r3]	@ zero_extendqisi2
  85 0006 23B9     		cbnz	r3, .L5
  94:Generated_Source\PSoC5/GraphicLCDIntf.c ****     {
  95:Generated_Source\PSoC5/GraphicLCDIntf.c ****         GraphicLCDIntf_Init();
  86              		.loc 1 95 0
  87 0008 FFF7FEFF 		bl	GraphicLCDIntf_Init
  88              	.LVL0:
  96:Generated_Source\PSoC5/GraphicLCDIntf.c ****         GraphicLCDIntf_initVar = 1u;
  89              		.loc 1 96 0
  90 000c 0122     		movs	r2, #1
  91 000e 014B     		ldr	r3, .L8
  92 0010 1A70     		strb	r2, [r3]
  93              	.L5:
  94 0012 08BD     		pop	{r3, pc}
  95              	.L9:
  96              		.align	2
  97              	.L8:
  98 0014 00000000 		.word	.LANCHOR0
  99              		.cfi_endproc
 100              	.LFE2:
 101              		.size	GraphicLCDIntf_Start, .-GraphicLCDIntf_Start
 102              		.section	.text.GraphicLCDIntf_Stop,"ax",%progbits
 103              		.align	2
 104              		.global	GraphicLCDIntf_Stop
 105              		.thumb
 106              		.thumb_func
 107              		.type	GraphicLCDIntf_Stop, %function
 108              	GraphicLCDIntf_Stop:
 109              	.LFB3:
  97:Generated_Source\PSoC5/GraphicLCDIntf.c ****     }
  98:Generated_Source\PSoC5/GraphicLCDIntf.c ****       
  99:Generated_Source\PSoC5/GraphicLCDIntf.c ****     GraphicLCDIntf_Enable();
 100:Generated_Source\PSoC5/GraphicLCDIntf.c **** }
 101:Generated_Source\PSoC5/GraphicLCDIntf.c **** 
 102:Generated_Source\PSoC5/GraphicLCDIntf.c **** 
 103:Generated_Source\PSoC5/GraphicLCDIntf.c **** /*******************************************************************************
 104:Generated_Source\PSoC5/GraphicLCDIntf.c **** * Function Name: GraphicLCDIntf_Stop
 105:Generated_Source\PSoC5/GraphicLCDIntf.c **** ********************************************************************************
 106:Generated_Source\PSoC5/GraphicLCDIntf.c **** *
 107:Generated_Source\PSoC5/GraphicLCDIntf.c **** * Summary:
 108:Generated_Source\PSoC5/GraphicLCDIntf.c **** *  Disables the GraphicLCDIntf interface.
 109:Generated_Source\PSoC5/GraphicLCDIntf.c **** *
 110:Generated_Source\PSoC5/GraphicLCDIntf.c **** * Parameters:
 111:Generated_Source\PSoC5/GraphicLCDIntf.c **** *  None.
 112:Generated_Source\PSoC5/GraphicLCDIntf.c **** *
 113:Generated_Source\PSoC5/GraphicLCDIntf.c **** * Return:
 114:Generated_Source\PSoC5/GraphicLCDIntf.c **** *  None.
 115:Generated_Source\PSoC5/GraphicLCDIntf.c **** *
 116:Generated_Source\PSoC5/GraphicLCDIntf.c **** *******************************************************************************/
 117:Generated_Source\PSoC5/GraphicLCDIntf.c **** void GraphicLCDIntf_Stop(void) 
 118:Generated_Source\PSoC5/GraphicLCDIntf.c **** {
 110              		.loc 1 118 0
ARM GAS  C:\Users\Sava\AppData\Local\Temp\cc3h6qfP.s 			page 5


 111              		.cfi_startproc
 112              		@ args = 0, pretend = 0, frame = 0
 113              		@ frame_needed = 0, uses_anonymous_args = 0
 114              		@ link register save eliminated.
 115 0000 7047     		bx	lr
 116              		.cfi_endproc
 117              	.LFE3:
 118              		.size	GraphicLCDIntf_Stop, .-GraphicLCDIntf_Stop
 119 0002 00BF     		.section	.text.GraphicLCDIntf_Write16,"ax",%progbits
 120              		.align	2
 121              		.global	GraphicLCDIntf_Write16
 122              		.thumb
 123              		.thumb_func
 124              		.type	GraphicLCDIntf_Write16, %function
 125              	GraphicLCDIntf_Write16:
 126              	.LFB4:
 119:Generated_Source\PSoC5/GraphicLCDIntf.c ****     /* There aren't anything to stop */
 120:Generated_Source\PSoC5/GraphicLCDIntf.c **** }
 121:Generated_Source\PSoC5/GraphicLCDIntf.c **** 
 122:Generated_Source\PSoC5/GraphicLCDIntf.c **** 
 123:Generated_Source\PSoC5/GraphicLCDIntf.c **** /*******************************************************************************
 124:Generated_Source\PSoC5/GraphicLCDIntf.c **** * Function Name: GraphicLCDIntf_Write16
 125:Generated_Source\PSoC5/GraphicLCDIntf.c **** ********************************************************************************
 126:Generated_Source\PSoC5/GraphicLCDIntf.c **** *
 127:Generated_Source\PSoC5/GraphicLCDIntf.c **** * Summary:
 128:Generated_Source\PSoC5/GraphicLCDIntf.c **** *  Initiates a write transaction on the 16-bit parallel
 129:Generated_Source\PSoC5/GraphicLCDIntf.c **** *  interface.
 130:Generated_Source\PSoC5/GraphicLCDIntf.c **** *  The write is a posted write, so this function will return before the write 
 131:Generated_Source\PSoC5/GraphicLCDIntf.c **** *  has actually completed on the interface. If the command queue is full, this 
 132:Generated_Source\PSoC5/GraphicLCDIntf.c **** *  function will not return until space is availale to queue this write request.
 133:Generated_Source\PSoC5/GraphicLCDIntf.c **** *
 134:Generated_Source\PSoC5/GraphicLCDIntf.c **** * Parameters:
 135:Generated_Source\PSoC5/GraphicLCDIntf.c **** *  d_c:  Data(1) or Command(0) indication. Passed to the d_c pin.
 136:Generated_Source\PSoC5/GraphicLCDIntf.c **** *
 137:Generated_Source\PSoC5/GraphicLCDIntf.c **** *  data: Data sent on the do_msb[7:0] (most significant byte) 
 138:Generated_Source\PSoC5/GraphicLCDIntf.c **** *        and do_lsb[7:0] (least significant byte) pins. do_msb[7:0]
 139:Generated_Source\PSoC5/GraphicLCDIntf.c **** *        presents only for 16-bit interface.
 140:Generated_Source\PSoC5/GraphicLCDIntf.c **** *
 141:Generated_Source\PSoC5/GraphicLCDIntf.c **** * Return:
 142:Generated_Source\PSoC5/GraphicLCDIntf.c **** *  None.
 143:Generated_Source\PSoC5/GraphicLCDIntf.c **** *
 144:Generated_Source\PSoC5/GraphicLCDIntf.c **** * Reentrant:
 145:Generated_Source\PSoC5/GraphicLCDIntf.c **** *  No.
 146:Generated_Source\PSoC5/GraphicLCDIntf.c **** *
 147:Generated_Source\PSoC5/GraphicLCDIntf.c **** *******************************************************************************/
 148:Generated_Source\PSoC5/GraphicLCDIntf.c **** void GraphicLCDIntf_Write16(uint8 d_c, uint16 wrData) \
 149:Generated_Source\PSoC5/GraphicLCDIntf.c ****                                                  
 150:Generated_Source\PSoC5/GraphicLCDIntf.c **** {
 127              		.loc 1 150 0
 128              		.cfi_startproc
 129              		@ args = 0, pretend = 0, frame = 0
 130              		@ frame_needed = 0, uses_anonymous_args = 0
 131              		@ link register save eliminated.
 132              	.LVL1:
 133              	.L12:
 151:Generated_Source\PSoC5/GraphicLCDIntf.c ****     while((GraphicLCDIntf_STATUS_REG & GraphicLCDIntf_CMD_QUEUE_FULL) != 0u)
 134              		.loc 1 151 0 discriminator 1
ARM GAS  C:\Users\Sava\AppData\Local\Temp\cc3h6qfP.s 			page 6


 135 0000 044B     		ldr	r3, .L13
 136 0002 1B78     		ldrb	r3, [r3]	@ zero_extendqisi2
 137 0004 13F0010F 		tst	r3, #1
 138 0008 FAD1     		bne	.L12
 152:Generated_Source\PSoC5/GraphicLCDIntf.c ****     {
 153:Generated_Source\PSoC5/GraphicLCDIntf.c ****             /* Command queue is full */
 154:Generated_Source\PSoC5/GraphicLCDIntf.c ****     }   
 155:Generated_Source\PSoC5/GraphicLCDIntf.c ****     GraphicLCDIntf_CMD_FIFO_REG = d_c;
 139              		.loc 1 155 0
 140 000a 034B     		ldr	r3, .L13+4
 141 000c 1870     		strb	r0, [r3]
 156:Generated_Source\PSoC5/GraphicLCDIntf.c ****     #if (GraphicLCDIntf_BUS_WIDTH == 16u)
 157:Generated_Source\PSoC5/GraphicLCDIntf.c ****         CY_SET_REG16(GraphicLCDIntf_DATA_FIFO_PTR, wrData);
 142              		.loc 1 157 0
 143 000e 1033     		adds	r3, r3, #16
 144 0010 1980     		strh	r1, [r3]	@ movhi
 145 0012 7047     		bx	lr
 146              	.L14:
 147              		.align	2
 148              	.L13:
 149 0014 69650040 		.word	1073767785
 150 0018 4A650040 		.word	1073767754
 151              		.cfi_endproc
 152              	.LFE4:
 153              		.size	GraphicLCDIntf_Write16, .-GraphicLCDIntf_Write16
 154              		.section	.text.GraphicLCDIntf_WriteM16,"ax",%progbits
 155              		.align	2
 156              		.global	GraphicLCDIntf_WriteM16
 157              		.thumb
 158              		.thumb_func
 159              		.type	GraphicLCDIntf_WriteM16, %function
 160              	GraphicLCDIntf_WriteM16:
 161              	.LFB5:
 158:Generated_Source\PSoC5/GraphicLCDIntf.c ****     #else /* 8-bit interface */
 159:Generated_Source\PSoC5/GraphicLCDIntf.c ****         GraphicLCDIntf_DATA_FIFO_REG = wrData;
 160:Generated_Source\PSoC5/GraphicLCDIntf.c ****     #endif /* GraphicLCDIntf_BUS_WIDTH == 16u */
 161:Generated_Source\PSoC5/GraphicLCDIntf.c **** }
 162:Generated_Source\PSoC5/GraphicLCDIntf.c **** 	
 163:Generated_Source\PSoC5/GraphicLCDIntf.c **** 
 164:Generated_Source\PSoC5/GraphicLCDIntf.c **** /*******************************************************************************
 165:Generated_Source\PSoC5/GraphicLCDIntf.c **** * Function Name: GraphicLCDIntf_WriteM16
 166:Generated_Source\PSoC5/GraphicLCDIntf.c **** ********************************************************************************
 167:Generated_Source\PSoC5/GraphicLCDIntf.c **** *
 168:Generated_Source\PSoC5/GraphicLCDIntf.c **** * Summary:
 169:Generated_Source\PSoC5/GraphicLCDIntf.c **** *  Initiates multiple write transactions on the 16-bit 
 170:Generated_Source\PSoC5/GraphicLCDIntf.c **** *  parallel interface. The write is a posted write, so this function will return
 171:Generated_Source\PSoC5/GraphicLCDIntf.c **** *  before the write has actually completed on the interface. If the command 
 172:Generated_Source\PSoC5/GraphicLCDIntf.c **** *  queue is full, this function will not return until space is availale to queue
 173:Generated_Source\PSoC5/GraphicLCDIntf.c **** *  this write request.
 174:Generated_Source\PSoC5/GraphicLCDIntf.c **** *
 175:Generated_Source\PSoC5/GraphicLCDIntf.c **** * Parameters:
 176:Generated_Source\PSoC5/GraphicLCDIntf.c **** *  d_c:  Data(1) or Command(0) indication. Passed to the d_c pin.
 177:Generated_Source\PSoC5/GraphicLCDIntf.c **** *
 178:Generated_Source\PSoC5/GraphicLCDIntf.c **** *  data: Pointer to the the first element of a data buffer sent on the do_msb[7:0]
 179:Generated_Source\PSoC5/GraphicLCDIntf.c **** *        (most significant byte) and do_lsb[7:0] (least significant byte) pins. 
 180:Generated_Source\PSoC5/GraphicLCDIntf.c **** *        do_msb[7:0] presents only for 16-bit interface.
 181:Generated_Source\PSoC5/GraphicLCDIntf.c **** *
ARM GAS  C:\Users\Sava\AppData\Local\Temp\cc3h6qfP.s 			page 7


 182:Generated_Source\PSoC5/GraphicLCDIntf.c **** *  num:  Number of words/bytes to write.
 183:Generated_Source\PSoC5/GraphicLCDIntf.c **** *
 184:Generated_Source\PSoC5/GraphicLCDIntf.c **** * Return:
 185:Generated_Source\PSoC5/GraphicLCDIntf.c **** *  None.
 186:Generated_Source\PSoC5/GraphicLCDIntf.c **** *
 187:Generated_Source\PSoC5/GraphicLCDIntf.c **** * Reentrant:
 188:Generated_Source\PSoC5/GraphicLCDIntf.c **** *  No.
 189:Generated_Source\PSoC5/GraphicLCDIntf.c **** *
 190:Generated_Source\PSoC5/GraphicLCDIntf.c **** *******************************************************************************/
 191:Generated_Source\PSoC5/GraphicLCDIntf.c **** void GraphicLCDIntf_WriteM16(uint8 d_c, uint16* wrData, uint16 num) \
 192:Generated_Source\PSoC5/GraphicLCDIntf.c ****                                                 
 193:Generated_Source\PSoC5/GraphicLCDIntf.c **** {
 162              		.loc 1 193 0
 163              		.cfi_startproc
 164              		@ args = 0, pretend = 0, frame = 0
 165              		@ frame_needed = 0, uses_anonymous_args = 0
 166              		@ link register save eliminated.
 167              	.LVL2:
 168 0000 10B4     		push	{r4}
 169              		.cfi_def_cfa_offset 4
 170              		.cfi_offset 4, -4
 194:Generated_Source\PSoC5/GraphicLCDIntf.c ****     for(; num; num--)
 171              		.loc 1 194 0
 172 0002 0CE0     		b	.L16
 173              	.L17:
 195:Generated_Source\PSoC5/GraphicLCDIntf.c ****     {
 196:Generated_Source\PSoC5/GraphicLCDIntf.c ****         while((GraphicLCDIntf_STATUS_REG & GraphicLCDIntf_CMD_QUEUE_FULL) != 0u)
 174              		.loc 1 196 0 discriminator 1
 175 0004 084B     		ldr	r3, .L19
 176 0006 1B78     		ldrb	r3, [r3]	@ zero_extendqisi2
 177 0008 13F0010F 		tst	r3, #1
 178 000c FAD1     		bne	.L17
 197:Generated_Source\PSoC5/GraphicLCDIntf.c ****         {
 198:Generated_Source\PSoC5/GraphicLCDIntf.c ****             /* Command queue is full */
 199:Generated_Source\PSoC5/GraphicLCDIntf.c ****         }   
 200:Generated_Source\PSoC5/GraphicLCDIntf.c ****         GraphicLCDIntf_CMD_FIFO_REG = d_c;  
 179              		.loc 1 200 0
 180 000e 074B     		ldr	r3, .L19+4
 181 0010 1870     		strb	r0, [r3]
 182              	.LVL3:
 201:Generated_Source\PSoC5/GraphicLCDIntf.c ****  
 202:Generated_Source\PSoC5/GraphicLCDIntf.c ****         #if (GraphicLCDIntf_BUS_WIDTH == 16u)
 203:Generated_Source\PSoC5/GraphicLCDIntf.c ****             CY_SET_REG16(GraphicLCDIntf_DATA_FIFO_PTR, *wrData++);
 183              		.loc 1 203 0
 184 0012 0C88     		ldrh	r4, [r1]
 185 0014 1033     		adds	r3, r3, #16
 186 0016 1C80     		strh	r4, [r3]	@ movhi
 194:Generated_Source\PSoC5/GraphicLCDIntf.c ****     {
 187              		.loc 1 194 0
 188 0018 013A     		subs	r2, r2, #1
 189              	.LVL4:
 190 001a 92B2     		uxth	r2, r2
 191              	.LVL5:
 192              		.loc 1 203 0
 193 001c 0231     		adds	r1, r1, #2
 194              	.LVL6:
 195              	.L16:
ARM GAS  C:\Users\Sava\AppData\Local\Temp\cc3h6qfP.s 			page 8


 194:Generated_Source\PSoC5/GraphicLCDIntf.c ****     {
 196              		.loc 1 194 0 discriminator 1
 197 001e 002A     		cmp	r2, #0
 198 0020 F0D1     		bne	.L17
 204:Generated_Source\PSoC5/GraphicLCDIntf.c ****         #else /* 8-bit interface */
 205:Generated_Source\PSoC5/GraphicLCDIntf.c ****             GraphicLCDIntf_DATA_FIFO_REG = *wrData++;
 206:Generated_Source\PSoC5/GraphicLCDIntf.c ****         #endif /* GraphicLCDIntf_BUS_WIDTH == 16u */
 207:Generated_Source\PSoC5/GraphicLCDIntf.c ****     }
 208:Generated_Source\PSoC5/GraphicLCDIntf.c **** }
 199              		.loc 1 208 0
 200 0022 10BC     		pop	{r4}
 201              		.cfi_restore 4
 202              		.cfi_def_cfa_offset 0
 203 0024 7047     		bx	lr
 204              	.L20:
 205 0026 00BF     		.align	2
 206              	.L19:
 207 0028 69650040 		.word	1073767785
 208 002c 4A650040 		.word	1073767754
 209              		.cfi_endproc
 210              	.LFE5:
 211              		.size	GraphicLCDIntf_WriteM16, .-GraphicLCDIntf_WriteM16
 212              		.section	.text.GraphicLCDIntf_Read16,"ax",%progbits
 213              		.align	2
 214              		.global	GraphicLCDIntf_Read16
 215              		.thumb
 216              		.thumb_func
 217              		.type	GraphicLCDIntf_Read16, %function
 218              	GraphicLCDIntf_Read16:
 219              	.LFB6:
 209:Generated_Source\PSoC5/GraphicLCDIntf.c **** 
 210:Generated_Source\PSoC5/GraphicLCDIntf.c **** 
 211:Generated_Source\PSoC5/GraphicLCDIntf.c **** /*******************************************************************************
 212:Generated_Source\PSoC5/GraphicLCDIntf.c **** * Function Name: GraphicLCDIntf_Read16
 213:Generated_Source\PSoC5/GraphicLCDIntf.c **** ********************************************************************************
 214:Generated_Source\PSoC5/GraphicLCDIntf.c **** *
 215:Generated_Source\PSoC5/GraphicLCDIntf.c **** * Summary:
 216:Generated_Source\PSoC5/GraphicLCDIntf.c **** *  Initiates a read transaction on the 16-bit parallel interface.
 217:Generated_Source\PSoC5/GraphicLCDIntf.c **** *  The read will execute after all currently posted writes have completed. This 
 218:Generated_Source\PSoC5/GraphicLCDIntf.c **** *  function will wait until the read completes and then returns the read value.
 219:Generated_Source\PSoC5/GraphicLCDIntf.c **** *
 220:Generated_Source\PSoC5/GraphicLCDIntf.c **** * Parameters:
 221:Generated_Source\PSoC5/GraphicLCDIntf.c **** *  d_c: Data(1) or Command(0) indication. Passed to the d_c pin.
 222:Generated_Source\PSoC5/GraphicLCDIntf.c **** *
 223:Generated_Source\PSoC5/GraphicLCDIntf.c **** * Return:
 224:Generated_Source\PSoC5/GraphicLCDIntf.c **** *  16-bit read value from the di_msb[7:0] (most significant byte) and 
 225:Generated_Source\PSoC5/GraphicLCDIntf.c **** *  di_lsb[7:0] (least significant byte) pins for 16-bit interface or
 226:Generated_Source\PSoC5/GraphicLCDIntf.c **** *  8-bit read value from the di_lsb[7:0] for 8-bit interface.
 227:Generated_Source\PSoC5/GraphicLCDIntf.c **** *
 228:Generated_Source\PSoC5/GraphicLCDIntf.c **** * Reentrant:
 229:Generated_Source\PSoC5/GraphicLCDIntf.c **** *  No.
 230:Generated_Source\PSoC5/GraphicLCDIntf.c **** *
 231:Generated_Source\PSoC5/GraphicLCDIntf.c **** *******************************************************************************/
 232:Generated_Source\PSoC5/GraphicLCDIntf.c **** uint16 GraphicLCDIntf_Read16(uint8 d_c) \
 233:Generated_Source\PSoC5/GraphicLCDIntf.c ****                                                   
 234:Generated_Source\PSoC5/GraphicLCDIntf.c **** {
 220              		.loc 1 234 0
ARM GAS  C:\Users\Sava\AppData\Local\Temp\cc3h6qfP.s 			page 9


 221              		.cfi_startproc
 222              		@ args = 0, pretend = 0, frame = 0
 223              		@ frame_needed = 0, uses_anonymous_args = 0
 224              		@ link register save eliminated.
 225              	.LVL7:
 226              	.L22:
 235:Generated_Source\PSoC5/GraphicLCDIntf.c ****     while((GraphicLCDIntf_STATUS_REG & GraphicLCDIntf_CMD_QUEUE_FULL) != 0u)
 227              		.loc 1 235 0 discriminator 1
 228 0000 0A4B     		ldr	r3, .L24
 229 0002 1B78     		ldrb	r3, [r3]	@ zero_extendqisi2
 230 0004 13F0010F 		tst	r3, #1
 231 0008 FAD1     		bne	.L22
 236:Generated_Source\PSoC5/GraphicLCDIntf.c ****     {
 237:Generated_Source\PSoC5/GraphicLCDIntf.c ****         /* Command queue is full */
 238:Generated_Source\PSoC5/GraphicLCDIntf.c ****     }   
 239:Generated_Source\PSoC5/GraphicLCDIntf.c ****     GraphicLCDIntf_CMD_FIFO_REG = d_c | GraphicLCDIntf_READ_COMMAND;
 232              		.loc 1 239 0
 233 000a 40F00200 		orr	r0, r0, #2
 234              	.LVL8:
 235 000e 084B     		ldr	r3, .L24+4
 236 0010 1870     		strb	r0, [r3]
 237              	.L23:
 240:Generated_Source\PSoC5/GraphicLCDIntf.c ****     
 241:Generated_Source\PSoC5/GraphicLCDIntf.c ****     while((GraphicLCDIntf_STATUS_REG & GraphicLCDIntf_DATA_VALID) != GraphicLCDIntf_DATA_VALID)
 238              		.loc 1 241 0 discriminator 1
 239 0012 064B     		ldr	r3, .L24
 240 0014 1B78     		ldrb	r3, [r3]	@ zero_extendqisi2
 241 0016 13F0020F 		tst	r3, #2
 242 001a FAD0     		beq	.L23
 242:Generated_Source\PSoC5/GraphicLCDIntf.c ****     {
 243:Generated_Source\PSoC5/GraphicLCDIntf.c ****         /* wait until input data are valid */    
 244:Generated_Source\PSoC5/GraphicLCDIntf.c ****     }
 245:Generated_Source\PSoC5/GraphicLCDIntf.c ****     
 246:Generated_Source\PSoC5/GraphicLCDIntf.c ****     #if (GraphicLCDIntf_BUS_WIDTH == 8u)  /* 8-bit interface */
 247:Generated_Source\PSoC5/GraphicLCDIntf.c ****         return (GraphicLCDIntf_DIN_LSB_DATA_REG);
 248:Generated_Source\PSoC5/GraphicLCDIntf.c ****     #else   /* 16-bit interface */
 249:Generated_Source\PSoC5/GraphicLCDIntf.c ****         return ((((uint16) GraphicLCDIntf_DIN_MSB_DATA_REG) << 8u) | GraphicLCDIntf_DIN_LSB_DATA_RE
 243              		.loc 1 249 0
 244 001c 054B     		ldr	r3, .L24+8
 245 001e 1878     		ldrb	r0, [r3]	@ zero_extendqisi2
 246 0020 03F20113 		addw	r3, r3, #257
 247 0024 1B78     		ldrb	r3, [r3]	@ zero_extendqisi2
 250:Generated_Source\PSoC5/GraphicLCDIntf.c ****     #endif /* GraphicLCDIntf_BUS_WIDTH == 8u */
 251:Generated_Source\PSoC5/GraphicLCDIntf.c **** }
 248              		.loc 1 251 0
 249 0026 43EA0020 		orr	r0, r3, r0, lsl #8
 250 002a 7047     		bx	lr
 251              	.L25:
 252              		.align	2
 253              	.L24:
 254 002c 69650040 		.word	1073767785
 255 0030 4A650040 		.word	1073767754
 256 0034 69640040 		.word	1073767529
 257              		.cfi_endproc
 258              	.LFE6:
 259              		.size	GraphicLCDIntf_Read16, .-GraphicLCDIntf_Read16
 260              		.global	GraphicLCDIntf_initVar
ARM GAS  C:\Users\Sava\AppData\Local\Temp\cc3h6qfP.s 			page 10


 261              		.bss
 262              		.set	.LANCHOR0,. + 0
 263              		.type	GraphicLCDIntf_initVar, %object
 264              		.size	GraphicLCDIntf_initVar, 1
 265              	GraphicLCDIntf_initVar:
 266 0000 00       		.space	1
 267              		.text
 268              	.Letext0:
 269              		.file 2 "Generated_Source\\PSoC5\\cytypes.h"