ARM GAS  C:\Users\Sava\AppData\Local\Temp\ccaPCXf3.s 			page 1


   1              		.syntax unified
   2              		.cpu cortex-m3
   3              		.fpu softvfp
   4              		.eabi_attribute 20, 1
   5              		.eabi_attribute 21, 1
   6              		.eabi_attribute 23, 3
   7              		.eabi_attribute 24, 1
   8              		.eabi_attribute 25, 1
   9              		.eabi_attribute 26, 1
  10              		.eabi_attribute 30, 1
  11              		.eabi_attribute 34, 1
  12              		.eabi_attribute 18, 4
  13              		.thumb
  14              		.syntax unified
  15              		.file	"main.c"
  16              		.text
  17              	.Ltext0:
  18              		.cfi_sections	.debug_frame
  19              		.section	.text.window_1_callback,"ax",%progbits
  20              		.align	2
  21              		.global	window_1_callback
  22              		.thumb
  23              		.thumb_func
  24              		.type	window_1_callback, %function
  25              	window_1_callback:
  26              	.LFB65:
  27              		.file 1 "main.c"
   1:main.c        **** /* ======================================================
   2:main.c        ****  *
   3:main.c        ****  * Copyright ANDRES F. NAVAS, 2018
   4:main.c        ****  * All Rights Reserved
   5:main.c        ****  * 
   6:main.c        ****  * Kit PSoC used:
   7:main.c        ****  * CY8CKIT-050 (CY8C5868AXI-LP035)
   8:main.c        ****  * 
   9:main.c        ****  * Main program to Test and show how to work
  10:main.c        ****  * with a SSD1963 LCD and XPT2046 Touch controllers. TFT 16Bits BUS
  11:main.c        ****  * Integration with uGUI Library
  12:main.c        ****  * URL: http://www.embeddedlightning.com/
  13:main.c        ****  * 
  14:main.c        ****  * Use of SD-Card to Log data and read Images
  15:main.c        ****  * Integration with FatFs Version R0.11a port made by Hackingchips (http://www.hackingchips.com/201
  16:main.c        ****  * URL: http://elm-chan.org/fsw/ff/00index_e.html
  17:main.c        ****  *
  18:main.c        ****  * Link to the 5" LCD Panel used: 
  19:main.c        ****  * https://www.aliexpress.com/item/Consumer-Electronics-Shop-Free-shipping-5-TFT-LCD-SS63-Module-Di
  20:main.c        ****  * 
  21:main.c        ****  * CONFIDENTIAL AND PROPRIETARY INFORMATION
  22:main.c        ****  * WHICH IS THE PROPERTY OF ANDRES F. NAVAS.
  23:main.c        ****  *
  24:main.c        ****  * ======================================================
  25:main.c        **** */
  26:main.c        **** 
  27:main.c        **** #include <stdio.h>
  28:main.c        **** #include <stdlib.h>
  29:main.c        **** #include <string.h>
  30:main.c        **** #include "project.h"
ARM GAS  C:\Users\Sava\AppData\Local\Temp\ccaPCXf3.s 			page 2


  31:main.c        **** #include "uGUI_Library/ugui.h"
  32:main.c        **** #include "TFT_Driver/ugui_SSD1963.h"
  33:main.c        **** #include "Touch_Controller/XPT2046.h"
  34:main.c        **** #include "Images/Images.h"
  35:main.c        **** #include "FatFs_Library/diskio.h"
  36:main.c        **** #include "FatFs_Library/ff.h"
  37:main.c        **** 
  38:main.c        **** 
  39:main.c        **** 
  40:main.c        **** #define MAX_OBJECTS 10
  41:main.c        **** #define BuffOUT     40
  42:main.c        **** 
  43:main.c        **** char bufferOut[BuffOUT];
  44:main.c        **** 
  45:main.c        **** uint16 Px, Py, BtnPulsed;
  46:main.c        **** 
  47:main.c        **** UG_WINDOW window_1;
  48:main.c        **** UG_BUTTON button_1;
  49:main.c        **** UG_BUTTON button_2;
  50:main.c        **** UG_BUTTON button_3;
  51:main.c        **** UG_BUTTON button_4;
  52:main.c        **** UG_TEXTBOX textbox_1;
  53:main.c        **** UG_IMAGE image_1;
  54:main.c        **** const UG_BMP logo =     // Construct the BMP structure with the Image Local data
  55:main.c        **** {
  56:main.c        ****     (void*)acCapture,   // Data Image (local)
  57:main.c        ****     194,                // Image Width
  58:main.c        ****     102,                // Image Heigth
  59:main.c        ****     0,                  // BPP for HW Accelerated function doesn't matter
  60:main.c        ****     BMP_RGB565          // Use RGB888 for RGB 24Bits BMP Image
  61:main.c        **** };
  62:main.c        **** UG_OBJECT obj_buff_wnd_1[MAX_OBJECTS];
  63:main.c        **** 
  64:main.c        **** void window_1_callback(UG_MESSAGE *msg);
  65:main.c        **** 
  66:main.c        **** int main(void)
  67:main.c        **** {
  68:main.c        ****     UG_COLOR colorb[4];
  69:main.c        ****     
  70:main.c        ****     FATFS fatFs;
  71:main.c        ****     FIL fileO;
  72:main.c        ****     //DIR directoryO;
  73:main.c        ****     //FILINFO fileInfo;
  74:main.c        ****     uint8 resultF;
  75:main.c        ****     char Name[] = {'A', 'n', 'd', 'r', 'e', 's', ' ', 'N', 'a', 'v', 'a', 's', 0x00};       // Loca
  76:main.c        ****         
  77:main.c        ****     CyGlobalIntEnable; /* Enable global interrupts. */
  78:main.c        ****     colorb[0] = C_RED;
  79:main.c        ****     colorb[1] = C_GREEN;
  80:main.c        ****     colorb[2] = C_BLUE;
  81:main.c        ****     
  82:main.c        ****     BtnPulsed = 0;          // Counter of button B pulsed to Log
  83:main.c        ****     /* Place your initialization/startup code here (e.g. MyInst_Start()) */
  84:main.c        ****     //Clock_LCD_SetDividerRegister(0,1);   // Full clock speed
  85:main.c        ****     GraphicLCDIntf_Start();
  86:main.c        ****     Display_Init();
  87:main.c        ****     XPT2046_Start();                       // Start Touch Controller
ARM GAS  C:\Users\Sava\AppData\Local\Temp\ccaPCXf3.s 			page 3


  88:main.c        ****     SPI_Start();                           // Start SPI bus.
  89:main.c        ****     SPI_SS_Write(1);
  90:main.c        ****     LED3_Write(0);                         // Debugging
  91:main.c        ****     CyDelay(50);
  92:main.c        ****     
  93:main.c        ****     /* Mount sdcard. */
  94:main.c        ****     resultF = f_mount(&fatFs, "", 1);
  95:main.c        ****     
  96:main.c        ****     if (resultF == RES_OK)
  97:main.c        ****     {
  98:main.c        ****         f_open(&fileO, "Name.txt", FA_READ);        // Read the Name stored in the SDCard Name.txt 
  99:main.c        ****         f_gets(Name, 20, &fileO);
 100:main.c        ****         f_close(&fileO);
 101:main.c        ****     }
 102:main.c        ****     
 103:main.c        ****     
 104:main.c        ****     /* Clear screen. */
 105:main.c        ****     UG_FillScreen(C_BLACK);
 106:main.c        ****     UG_DrawFrame(0, 0, 799, 479, C_LIGHT_GRAY);     // Draw a Frame
 107:main.c        ****     CyDelay(10);
 108:main.c        ****     D_BL_Write(1);          // Turn on BackLight    
 109:main.c        ****     
 110:main.c        ****     //Some Texts
 111:main.c        ****     UG_FontSelect(&FONT_12X16);
 112:main.c        ****     UG_SetBackcolor(C_BLACK);
 113:main.c        ****     UG_SetForecolor(C_YELLOW);
 114:main.c        ****     sprintf(bufferOut,"TFT 5\"   (%dx%d)", DISPLAY_WIDTH, DISPLAY_HEIGHT);
 115:main.c        ****     UG_PutString(5, 5 , bufferOut);
 116:main.c        ****     UG_FontSelect(&FONT_12X16);
 117:main.c        ****     UG_SetBackcolor(C_BLACK);
 118:main.c        ****     UG_SetForecolor(C_YELLOW);
 119:main.c        ****     UG_PutString(5, 23, "PSoC 5LP (CY8CKIT-050)");
 120:main.c        ****     UG_FontSelect(&FONT_22X36);
 121:main.c        ****     UG_SetBackcolor(C_BLACK);
 122:main.c        ****     UG_SetForecolor(C_WHITE);
 123:main.c        ****     UG_PutString(400, 90, Name);        // Show the name from SDCard if the file exist, if not use 
 124:main.c        ****     
 125:main.c        ****     // Create the window
 126:main.c        ****     UG_WindowCreate(&window_1, obj_buff_wnd_1, MAX_OBJECTS, window_1_callback);
 127:main.c        ****     // Window Title
 128:main.c        ****     UG_WindowSetTitleText(&window_1, "Test Window - \xe6GUI v0.31   \x02");      //  \xhh : Special
 129:main.c        ****     UG_WindowSetTitleTextFont(&window_1, &FONT_12X16);
 130:main.c        ****     UG_WindowSetXStart(&window_1, 275);
 131:main.c        ****     UG_WindowSetYStart(&window_1, 200);
 132:main.c        ****     UG_WindowSetXEnd(&window_1, 725);       // Window 450x250
 133:main.c        ****     UG_WindowSetYEnd(&window_1, 450);
 134:main.c        ****     
 135:main.c        ****     // Create Buttons
 136:main.c        ****     UG_ButtonCreate(&window_1, &button_1, BTN_ID_0, 10, 10, 110, 60);
 137:main.c        ****     UG_ButtonCreate(&window_1, &button_2, BTN_ID_1, 10, 80, 110, 130);
 138:main.c        ****     UG_ButtonCreate(&window_1, &button_3, BTN_ID_2, 10, 150, 110, 200);
 139:main.c        ****     UG_ButtonCreate(&window_1, &button_4, BTN_ID_3, 170, 100, 172 + logo.width, 102 + logo.height);
 140:main.c        ****     //Label Buttons
 141:main.c        ****     UG_ButtonSetFont(&window_1,BTN_ID_0,&FONT_8X14);
 142:main.c        ****     UG_ButtonSetForeColor(&window_1,BTN_ID_0, C_BLUE);
 143:main.c        ****     UG_ButtonSetText(&window_1,BTN_ID_0,"Button \nA");
 144:main.c        ****     UG_ButtonSetFont(&window_1,BTN_ID_1,&FONT_8X14);
ARM GAS  C:\Users\Sava\AppData\Local\Temp\ccaPCXf3.s 			page 4


 145:main.c        ****     UG_ButtonSetForeColor(&window_1,BTN_ID_1, C_RED);
 146:main.c        ****     UG_ButtonSetText(&window_1,BTN_ID_1,"Button \nB");
 147:main.c        ****     UG_ButtonSetFont(&window_1,BTN_ID_2,&FONT_8X14);
 148:main.c        ****     UG_ButtonSetForeColor(&window_1,BTN_ID_2, C_BLACK);
 149:main.c        ****     UG_ButtonSetText(&window_1,BTN_ID_2,"Button \nC");
 150:main.c        ****     
 151:main.c        ****     // Create Textbox
 152:main.c        ****     UG_TextboxCreate(&window_1, &textbox_1, TXB_ID_0, 120, 10, 440, 80);
 153:main.c        ****     UG_TextboxSetFont(&window_1, TXB_ID_0, &FONT_16X26);
 154:main.c        ****     UG_TextboxSetText(&window_1, TXB_ID_0, "This is a \n test sample window!");
 155:main.c        ****     UG_TextboxSetForeColor(&window_1, TXB_ID_0, C_BLACK);
 156:main.c        ****     UG_TextboxSetAlignment(&window_1, TXB_ID_0, ALIGN_CENTER);
 157:main.c        ****     
 158:main.c        ****     // Create Image over the button - uGUI Images only supported from Internal Flash Memory
 159:main.c        ****    // UG_ImageCreate(&window_1, &image_1, IMG_ID_0, 170, 100, 170 + logo.width, 100 + logo.height);
 160:main.c        ****    // UG_ImageSetBMP(&window_1, IMG_ID_0, &logo);
 161:main.c        ****    
 162:main.c        ****     UG_WindowShow(&window_1);
 163:main.c        ****     UG_Update();
 164:main.c        ****     
 165:main.c        ****     // Image from SDCard located over the button
 166:main.c        ****     DrawExImage(window_1.xs + 173, window_1.ys + 122, window_1.xs + 174 + logo.width, window_1.ys +
 167:main.c        ****     
 168:main.c        ****     // Image from Internal Flash memory located at left side of the Test window
 169:main.c        ****     HW_DrawImage(20, 200, 20 + logo.width, 200 + logo.height, logo.p, logo.width * logo.height);
 170:main.c        ****     
 171:main.c        ****     for(;;)
 172:main.c        ****     {
 173:main.c        ****     /* Some graphic primitives for testing. */      
 174:main.c        ****         
 175:main.c        ****         UG_DrawFrame(3, 49, 124, 156, C_RED);
 176:main.c        ****         UG_FillFrame(4, 50, 123, 155, colorb[0]);
 177:main.c        ****         UG_DrawFrame(126, 49, 247, 156, C_GREEN);
 178:main.c        ****         UG_FillFrame(127, 50, 246, 155, colorb[1]);
 179:main.c        ****         UG_DrawFrame(249, 49, 370, 156, C_BLUE);
 180:main.c        ****         UG_FillFrame(250, 50, 369, 155, colorb[2]);
 181:main.c        ****         
 182:main.c        ****         UG_Update();
 183:main.c        ****         
 184:main.c        ****         CyDelay(200);
 185:main.c        ****         colorb[3] = colorb[2];
 186:main.c        ****         colorb[2] = colorb[1];   
 187:main.c        ****         colorb[1] = colorb[0];   
 188:main.c        ****         colorb[0] = colorb[3];      
 189:main.c        ****             
 190:main.c        ****         if(XPT2046_IRQ == 0)        // Touch IRQ
 191:main.c        ****         {
 192:main.c        ****             
 193:main.c        ****          Py =   XPT2046_ReadPos(0x90);              /*  A2 = 0; A1 = 0; A0 = 0; */
 194:main.c        ****             Py = XPT2046_ReadPos(0x90);
 195:main.c        ****             XPT2046_ReadPos(0xd0);
 196:main.c        ****             Px = XPT2046_ReadPos(0xd0);
 197:main.c        ****             if(XPT2046_ReadXY(&PosX, &PosY))    UG_TouchUpdate(PosX, PosY, TOUCH_STATE_PRESSED);   
 198:main.c        ****             UG_FontSelect(&FONT_12X16);
 199:main.c        ****             UG_SetBackcolor(C_BLACK);
 200:main.c        ****             UG_SetForecolor(C_RED);
 201:main.c        ****         }
ARM GAS  C:\Users\Sava\AppData\Local\Temp\ccaPCXf3.s 			page 5


 202:main.c        ****         else 
 203:main.c        ****         {
 204:main.c        ****             UG_TouchUpdate(-1, -1, TOUCH_STATE_RELEASED);
 205:main.c        ****             UG_FontSelect(&FONT_12X16);
 206:main.c        ****             UG_SetBackcolor(C_BLACK);
 207:main.c        ****             UG_SetForecolor(C_GREEN);
 208:main.c        ****         }
 209:main.c        ****         sprintf(bufferOut,"X = %d | %d  ", Px, PosX);
 210:main.c        ****         UG_PutString(350, 5 , bufferOut);
 211:main.c        ****         sprintf(bufferOut,"Y = %d | %d  ", Py, PosY);
 212:main.c        ****         UG_PutString(350, 23, bufferOut);     
 213:main.c        ****         sprintf(bufferOut,"Z = %d   ", XPT2046_ReadZ());
 214:main.c        ****         UG_PutString(600, 13, bufferOut);
 215:main.c        ****     }
 216:main.c        **** }
 217:main.c        **** 
 218:main.c        **** void window_1_callback(UG_MESSAGE *msg)
 219:main.c        **** {
  28              		.loc 1 219 0
  29              		.cfi_startproc
  30              		@ args = 0, pretend = 0, frame = 1112
  31              		@ frame_needed = 0, uses_anonymous_args = 0
  32              	.LVL0:
 220:main.c        ****     FATFS fatFs;
 221:main.c        ****     FIL fileO;
 222:main.c        ****     uint8 resultF;
 223:main.c        ****     
 224:main.c        ****     if(msg->type == MSG_TYPE_OBJECT)
  33              		.loc 1 224 0
  34 0000 0378     		ldrb	r3, [r0]	@ zero_extendqisi2
  35 0002 022B     		cmp	r3, #2
  36 0004 40F08580 		bne	.L11
 225:main.c        ****     {
 226:main.c        ****         if(msg->id == OBJ_TYPE_BUTTON)
  37              		.loc 1 226 0
  38 0008 4378     		ldrb	r3, [r0, #1]	@ zero_extendqisi2
  39 000a 012B     		cmp	r3, #1
  40 000c 40F08180 		bne	.L11
 219:main.c        ****     FATFS fatFs;
  41              		.loc 1 219 0
  42 0010 70B5     		push	{r4, r5, r6, lr}
  43              		.cfi_def_cfa_offset 16
  44              		.cfi_offset 4, -16
  45              		.cfi_offset 5, -12
  46              		.cfi_offset 6, -8
  47              		.cfi_offset 14, -4
  48 0012 ADF58B6D 		sub	sp, sp, #1112
  49              		.cfi_def_cfa_offset 1128
  50 0016 0446     		mov	r4, r0
 227:main.c        ****         {
 228:main.c        ****             if(msg->event == OBJ_EVENT_PRESSED)
  51              		.loc 1 228 0
  52 0018 C378     		ldrb	r3, [r0, #3]	@ zero_extendqisi2
  53 001a 042B     		cmp	r3, #4
  54 001c 63D1     		bne	.L3
 229:main.c        ****             {
 230:main.c        ****                 switch(msg->sub_id)
ARM GAS  C:\Users\Sava\AppData\Local\Temp\ccaPCXf3.s 			page 6


  55              		.loc 1 230 0
  56 001e 8378     		ldrb	r3, [r0, #2]	@ zero_extendqisi2
  57 0020 032B     		cmp	r3, #3
  58 0022 60D8     		bhi	.L3
  59 0024 DFE803F0 		tbb	[pc, r3]
  60              	.L5:
  61 0028 02       		.byte	(.L4-.L5)/2
  62 0029 0A       		.byte	(.L6-.L5)/2
  63 002a 31       		.byte	(.L7-.L5)/2
  64 002b 39       		.byte	(.L8-.L5)/2
  65              		.p2align 1
  66              	.L4:
 231:main.c        ****                 {
 232:main.c        ****                     case BTN_ID_0:
 233:main.c        ****                     {
 234:main.c        ****                         LED4_Write(0);
  67              		.loc 1 234 0
  68 002c 0020     		movs	r0, #0
  69              	.LVL1:
  70 002e FFF7FEFF 		bl	LED4_Write
  71              	.LVL2:
 235:main.c        ****                         UG_ButtonHide(&window_1,BTN_ID_1);
  72              		.loc 1 235 0
  73 0032 0121     		movs	r1, #1
  74 0034 3748     		ldr	r0, .L12
  75 0036 FFF7FEFF 		bl	UG_ButtonHide
  76              	.LVL3:
 236:main.c        ****                         break;
  77              		.loc 1 236 0
  78 003a 54E0     		b	.L3
  79              	.LVL4:
  80              	.L6:
 237:main.c        ****                     }
 238:main.c        ****                     case BTN_ID_1:
 239:main.c        ****                     {
 240:main.c        ****                         UG_TextboxSetText(&window_1, TXB_ID_0, "Button B \nPressed!");
  81              		.loc 1 240 0
  82 003c 364A     		ldr	r2, .L12+4
  83 003e 0021     		movs	r1, #0
  84 0040 3448     		ldr	r0, .L12
  85              	.LVL5:
  86 0042 FFF7FEFF 		bl	UG_TextboxSetText
  87              	.LVL6:
 241:main.c        ****                         /* Mount sdcard. */
 242:main.c        ****                         resultF = f_mount(&fatFs, "", 1);
  88              		.loc 1 242 0
  89 0046 0122     		movs	r2, #1
  90 0048 3449     		ldr	r1, .L12+8
  91 004a 89A8     		add	r0, sp, #548
  92 004c FFF7FEFF 		bl	f_mount
  93              	.LVL7:
 243:main.c        ****                         if (resultF == RES_OK)
  94              		.loc 1 243 0
  95 0050 0028     		cmp	r0, #0
  96 0052 48D1     		bne	.L3
 244:main.c        ****                         {
 245:main.c        ****                             BtnPulsed++;
ARM GAS  C:\Users\Sava\AppData\Local\Temp\ccaPCXf3.s 			page 7


  97              		.loc 1 245 0
  98 0054 324D     		ldr	r5, .L12+12
  99 0056 2B88     		ldrh	r3, [r5]
 100 0058 0133     		adds	r3, r3, #1
 101 005a 2B80     		strh	r3, [r5]	@ movhi
 246:main.c        ****                             f_open(&fileO, "Log.txt", FA_OPEN_ALWAYS | FA_WRITE | FA_READ);        
 102              		.loc 1 246 0
 103 005c 1322     		movs	r2, #19
 104 005e 3149     		ldr	r1, .L12+16
 105 0060 6846     		mov	r0, sp
 106              	.LVL8:
 107 0062 FFF7FEFF 		bl	f_open
 108              	.LVL9:
 247:main.c        ****                             f_lseek(&fileO, f_size(&fileO));                                       
 109              		.loc 1 247 0
 110 0066 0399     		ldr	r1, [sp, #12]
 111 0068 6846     		mov	r0, sp
 112 006a FFF7FEFF 		bl	f_lseek
 113              	.LVL10:
 248:main.c        ****                             sprintf(bufferOut,"Button B pressed %d times since reset\r\n", BtnPulse
 114              		.loc 1 248 0
 115 006e 2E4E     		ldr	r6, .L12+20
 116 0070 2A88     		ldrh	r2, [r5]
 117 0072 2E49     		ldr	r1, .L12+24
 118 0074 3046     		mov	r0, r6
 119 0076 FFF7FEFF 		bl	sprintf
 120              	.LVL11:
 249:main.c        ****                             f_puts(bufferOut, &fileO);                                             
 121              		.loc 1 249 0
 122 007a 6946     		mov	r1, sp
 123 007c 3046     		mov	r0, r6
 124 007e FFF7FEFF 		bl	f_puts
 125              	.LVL12:
 250:main.c        ****                             f_close(&fileO);
 126              		.loc 1 250 0
 127 0082 6846     		mov	r0, sp
 128 0084 FFF7FEFF 		bl	f_close
 129              	.LVL13:
 130 0088 2DE0     		b	.L3
 131              	.LVL14:
 132              	.L7:
 251:main.c        ****                         }
 252:main.c        ****                         break;
 253:main.c        ****                     }
 254:main.c        ****                     case BTN_ID_2:
 255:main.c        ****                     {
 256:main.c        ****                         LED4_Write(1);
 133              		.loc 1 256 0
 134 008a 0120     		movs	r0, #1
 135              	.LVL15:
 136 008c FFF7FEFF 		bl	LED4_Write
 137              	.LVL16:
 257:main.c        ****                         UG_ButtonShow(&window_1,BTN_ID_1);
 138              		.loc 1 257 0
 139 0090 0121     		movs	r1, #1
 140 0092 2048     		ldr	r0, .L12
 141 0094 FFF7FEFF 		bl	UG_ButtonShow
ARM GAS  C:\Users\Sava\AppData\Local\Temp\ccaPCXf3.s 			page 8


 142              	.LVL17:
 258:main.c        ****                         break;
 143              		.loc 1 258 0
 144 0098 25E0     		b	.L3
 145              	.LVL18:
 146              	.L8:
 259:main.c        ****                     }
 260:main.c        ****                     case BTN_ID_3:
 261:main.c        ****                     {
 262:main.c        ****                         UG_TextboxSetText(&window_1, TXB_ID_0, "Image \nPressed!");
 147              		.loc 1 262 0
 148 009a 254A     		ldr	r2, .L12+28
 149 009c 0021     		movs	r1, #0
 150 009e 1D48     		ldr	r0, .L12
 151              	.LVL19:
 152 00a0 FFF7FEFF 		bl	UG_TextboxSetText
 153              	.LVL20:
 263:main.c        ****                         LED4_Write(!LED4_Read());
 154              		.loc 1 263 0
 155 00a4 FFF7FEFF 		bl	LED4_Read
 156              	.LVL21:
 157 00a8 B0FA80F0 		clz	r0, r0
 158 00ac 4009     		lsrs	r0, r0, #5
 159 00ae FFF7FEFF 		bl	LED4_Write
 160              	.LVL22:
 264:main.c        ****                         /* Mount sdcard. */
 265:main.c        ****                         resultF = f_mount(&fatFs, "", 1);
 161              		.loc 1 265 0
 162 00b2 0122     		movs	r2, #1
 163 00b4 1949     		ldr	r1, .L12+8
 164 00b6 89A8     		add	r0, sp, #548
 165 00b8 FFF7FEFF 		bl	f_mount
 166              	.LVL23:
 266:main.c        ****                         if (resultF == RES_OK)
 167              		.loc 1 266 0
 168 00bc 98B9     		cbnz	r0, .L3
 267:main.c        ****                         {
 268:main.c        ****                             BtnPulsed++;
 169              		.loc 1 268 0
 170 00be 184A     		ldr	r2, .L12+12
 171 00c0 1388     		ldrh	r3, [r2]
 172 00c2 0133     		adds	r3, r3, #1
 173 00c4 1380     		strh	r3, [r2]	@ movhi
 269:main.c        ****                             f_open(&fileO, "Log.txt", FA_OPEN_ALWAYS | FA_WRITE | FA_READ);        
 174              		.loc 1 269 0
 175 00c6 1322     		movs	r2, #19
 176 00c8 1649     		ldr	r1, .L12+16
 177 00ca 6846     		mov	r0, sp
 178              	.LVL24:
 179 00cc FFF7FEFF 		bl	f_open
 180              	.LVL25:
 270:main.c        ****                             f_lseek(&fileO, f_size(&fileO));                                       
 181              		.loc 1 270 0
 182 00d0 0399     		ldr	r1, [sp, #12]
 183 00d2 6846     		mov	r0, sp
 184 00d4 FFF7FEFF 		bl	f_lseek
 185              	.LVL26:
ARM GAS  C:\Users\Sava\AppData\Local\Temp\ccaPCXf3.s 			page 9


 271:main.c        ****                             f_puts("The image was Pressed!\r\n", &fileO);                          
 186              		.loc 1 271 0
 187 00d8 6946     		mov	r1, sp
 188 00da 1648     		ldr	r0, .L12+32
 189 00dc FFF7FEFF 		bl	f_puts
 190              	.LVL27:
 272:main.c        ****                             f_close(&fileO);
 191              		.loc 1 272 0
 192 00e0 6846     		mov	r0, sp
 193 00e2 FFF7FEFF 		bl	f_close
 194              	.LVL28:
 195              	.L3:
 273:main.c        ****                         }
 274:main.c        ****                         break;
 275:main.c        ****                     }
 276:main.c        ****                 }
 277:main.c        ****             }
 278:main.c        ****             if(msg->event == OBJ_EVENT_RELEASED)
 196              		.loc 1 278 0
 197 00e6 E378     		ldrb	r3, [r4, #3]	@ zero_extendqisi2
 198 00e8 052B     		cmp	r3, #5
 199 00ea 0FD1     		bne	.L1
 279:main.c        ****             {
 280:main.c        ****                 if(msg->sub_id == BTN_ID_1)
 200              		.loc 1 280 0
 201 00ec A378     		ldrb	r3, [r4, #2]	@ zero_extendqisi2
 202 00ee 012B     		cmp	r3, #1
 203 00f0 04D1     		bne	.L9
 281:main.c        ****                 {
 282:main.c        ****                         UG_TextboxSetText(&window_1, TXB_ID_0, "This is a \n test sample window!");
 204              		.loc 1 282 0
 205 00f2 114A     		ldr	r2, .L12+36
 206 00f4 0021     		movs	r1, #0
 207 00f6 0748     		ldr	r0, .L12
 208 00f8 FFF7FEFF 		bl	UG_TextboxSetText
 209              	.LVL29:
 210              	.L9:
 283:main.c        ****                 }
 284:main.c        ****                 if(msg->sub_id == BTN_ID_3)
 211              		.loc 1 284 0
 212 00fc A378     		ldrb	r3, [r4, #2]	@ zero_extendqisi2
 213 00fe 032B     		cmp	r3, #3
 214 0100 04D1     		bne	.L1
 285:main.c        ****                 {
 286:main.c        ****                         UG_TextboxSetText(&window_1, TXB_ID_0, "This is a \n test sample window!");
 215              		.loc 1 286 0
 216 0102 0D4A     		ldr	r2, .L12+36
 217 0104 0021     		movs	r1, #0
 218 0106 0348     		ldr	r0, .L12
 219 0108 FFF7FEFF 		bl	UG_TextboxSetText
 220              	.LVL30:
 221              	.L1:
 287:main.c        ****                 }
 288:main.c        ****             }
 289:main.c        ****         }
 290:main.c        ****         //CyDelay(5);
 291:main.c        ****     }
ARM GAS  C:\Users\Sava\AppData\Local\Temp\ccaPCXf3.s 			page 10


 292:main.c        **** }
 222              		.loc 1 292 0
 223 010c 0DF58B6D 		add	sp, sp, #1112
 224              		.cfi_def_cfa_offset 16
 225              		@ sp needed
 226 0110 70BD     		pop	{r4, r5, r6, pc}
 227              	.LVL31:
 228              	.L11:
 229              		.cfi_def_cfa_offset 0
 230              		.cfi_restore 4
 231              		.cfi_restore 5
 232              		.cfi_restore 6
 233              		.cfi_restore 14
 234 0112 7047     		bx	lr
 235              	.L13:
 236              		.align	2
 237              	.L12:
 238 0114 00000000 		.word	window_1
 239 0118 00000000 		.word	.LC1
 240 011c 14000000 		.word	.LC2
 241 0120 00000000 		.word	BtnPulsed
 242 0124 18000000 		.word	.LC3
 243 0128 00000000 		.word	bufferOut
 244 012c 20000000 		.word	.LC4
 245 0130 48000000 		.word	.LC5
 246 0134 58000000 		.word	.LC6
 247 0138 74000000 		.word	.LC7
 248              		.cfi_endproc
 249              	.LFE65:
 250              		.size	window_1_callback, .-window_1_callback
 251              		.section	.text.main,"ax",%progbits
 252              		.align	2
 253              		.global	main
 254              		.thumb
 255              		.thumb_func
 256              		.type	main, %function
 257              	main:
 258              	.LFB64:
  67:main.c        ****     UG_COLOR colorb[4];
 259              		.loc 1 67 0
 260              		.cfi_startproc
 261              		@ args = 0, pretend = 0, frame = 1136
 262              		@ frame_needed = 0, uses_anonymous_args = 0
 263 0000 2DE9F041 		push	{r4, r5, r6, r7, r8, lr}
 264              		.cfi_def_cfa_offset 24
 265              		.cfi_offset 4, -24
 266              		.cfi_offset 5, -20
 267              		.cfi_offset 6, -16
 268              		.cfi_offset 7, -12
 269              		.cfi_offset 8, -8
 270              		.cfi_offset 14, -4
 271 0004 ADF5906D 		sub	sp, sp, #1152
 272              		.cfi_def_cfa_offset 1176
  75:main.c        ****         
 273              		.loc 1 75 0
 274 0008 D54C     		ldr	r4, .L21
 275 000a 04AB     		add	r3, sp, #16
ARM GAS  C:\Users\Sava\AppData\Local\Temp\ccaPCXf3.s 			page 11


 276 000c 2068     		ldr	r0, [r4]	@ unaligned
 277 000e 6168     		ldr	r1, [r4, #4]	@ unaligned
 278 0010 A268     		ldr	r2, [r4, #8]	@ unaligned
 279 0012 07C3     		stmia	r3!, {r0, r1, r2}
 280 0014 227B     		ldrb	r2, [r4, #12]	@ zero_extendqisi2
 281 0016 1A70     		strb	r2, [r3]
  77:main.c        ****     colorb[0] = C_RED;
 282              		.loc 1 77 0
 283              		.syntax unified
 284              	@ 77 "main.c" 1
 285 0018 62B6     		CPSIE   i
 286              	@ 0 "" 2
  78:main.c        ****     colorb[1] = C_GREEN;
 287              		.loc 1 78 0
 288              		.thumb
 289              		.syntax unified
 290 001a 4FF47843 		mov	r3, #63488
 291 001e ADF87834 		strh	r3, [sp, #1144]	@ movhi
  79:main.c        ****     colorb[2] = C_BLUE;
 292              		.loc 1 79 0
 293 0022 4FF4FC63 		mov	r3, #2016
 294 0026 ADF87A34 		strh	r3, [sp, #1146]	@ movhi
  80:main.c        ****     
 295              		.loc 1 80 0
 296 002a 1F23     		movs	r3, #31
 297 002c ADF87C34 		strh	r3, [sp, #1148]	@ movhi
  82:main.c        ****     /* Place your initialization/startup code here (e.g. MyInst_Start()) */
 298              		.loc 1 82 0
 299 0030 0024     		movs	r4, #0
 300 0032 CC4B     		ldr	r3, .L21+4
 301 0034 1C80     		strh	r4, [r3]	@ movhi
  85:main.c        ****     Display_Init();
 302              		.loc 1 85 0
 303 0036 FFF7FEFF 		bl	GraphicLCDIntf_Start
 304              	.LVL32:
  86:main.c        ****     XPT2046_Start();                       // Start Touch Controller
 305              		.loc 1 86 0
 306 003a FFF7FEFF 		bl	Display_Init
 307              	.LVL33:
  87:main.c        ****     SPI_Start();                           // Start SPI bus.
 308              		.loc 1 87 0
 309 003e FFF7FEFF 		bl	XPT2046_Start
 310              	.LVL34:
  88:main.c        ****     SPI_SS_Write(1);
 311              		.loc 1 88 0
 312 0042 FFF7FEFF 		bl	SPI_Start
 313              	.LVL35:
  89:main.c        ****     LED3_Write(0);                         // Debugging
 314              		.loc 1 89 0
 315 0046 0120     		movs	r0, #1
 316 0048 FFF7FEFF 		bl	SPI_SS_Write
 317              	.LVL36:
  90:main.c        ****     CyDelay(50);
 318              		.loc 1 90 0
 319 004c 2046     		mov	r0, r4
 320 004e FFF7FEFF 		bl	LED3_Write
 321              	.LVL37:
ARM GAS  C:\Users\Sava\AppData\Local\Temp\ccaPCXf3.s 			page 12


  91:main.c        ****     
 322              		.loc 1 91 0
 323 0052 3220     		movs	r0, #50
 324 0054 FFF7FEFF 		bl	CyDelay
 325              	.LVL38:
  94:main.c        ****     
 326              		.loc 1 94 0
 327 0058 0122     		movs	r2, #1
 328 005a C349     		ldr	r1, .L21+8
 329 005c 91A8     		add	r0, sp, #580
 330 005e FFF7FEFF 		bl	f_mount
 331              	.LVL39:
  96:main.c        ****     {
 332              		.loc 1 96 0
 333 0062 60B9     		cbnz	r0, .L15
  98:main.c        ****         f_gets(Name, 20, &fileO);
 334              		.loc 1 98 0
 335 0064 0122     		movs	r2, #1
 336 0066 C149     		ldr	r1, .L21+12
 337 0068 08A8     		add	r0, sp, #32
 338              	.LVL40:
 339 006a FFF7FEFF 		bl	f_open
 340              	.LVL41:
  99:main.c        ****         f_close(&fileO);
 341              		.loc 1 99 0
 342 006e 08AA     		add	r2, sp, #32
 343 0070 1421     		movs	r1, #20
 344 0072 04A8     		add	r0, sp, #16
 345 0074 FFF7FEFF 		bl	f_gets
 346              	.LVL42:
 100:main.c        ****     }
 347              		.loc 1 100 0
 348 0078 08A8     		add	r0, sp, #32
 349 007a FFF7FEFF 		bl	f_close
 350              	.LVL43:
 351              	.L15:
 105:main.c        ****     UG_DrawFrame(0, 0, 799, 479, C_LIGHT_GRAY);     // Draw a Frame
 352              		.loc 1 105 0
 353 007e 0020     		movs	r0, #0
 354 0080 FFF7FEFF 		bl	UG_FillScreen
 355              	.LVL44:
 106:main.c        ****     CyDelay(10);
 356              		.loc 1 106 0
 357 0084 4DF29A63 		movw	r3, #54938
 358 0088 0093     		str	r3, [sp]
 359 008a 40F2DF13 		movw	r3, #479
 360 008e 40F21F32 		movw	r2, #799
 361 0092 0021     		movs	r1, #0
 362 0094 0846     		mov	r0, r1
 363 0096 FFF7FEFF 		bl	UG_DrawFrame
 364              	.LVL45:
 107:main.c        ****     D_BL_Write(1);          // Turn on BackLight    
 365              		.loc 1 107 0
 366 009a 0A20     		movs	r0, #10
 367 009c FFF7FEFF 		bl	CyDelay
 368              	.LVL46:
 108:main.c        ****     
ARM GAS  C:\Users\Sava\AppData\Local\Temp\ccaPCXf3.s 			page 13


 369              		.loc 1 108 0
 370 00a0 0120     		movs	r0, #1
 371 00a2 FFF7FEFF 		bl	D_BL_Write
 372              	.LVL47:
 111:main.c        ****     UG_SetBackcolor(C_BLACK);
 373              		.loc 1 111 0
 374 00a6 B24D     		ldr	r5, .L21+16
 375 00a8 2846     		mov	r0, r5
 376 00aa FFF7FEFF 		bl	UG_FontSelect
 377              	.LVL48:
 112:main.c        ****     UG_SetForecolor(C_YELLOW);
 378              		.loc 1 112 0
 379 00ae 0020     		movs	r0, #0
 380 00b0 FFF7FEFF 		bl	UG_SetBackcolor
 381              	.LVL49:
 113:main.c        ****     sprintf(bufferOut,"TFT 5\"   (%dx%d)", DISPLAY_WIDTH, DISPLAY_HEIGHT);
 382              		.loc 1 113 0
 383 00b4 4FF6E070 		movw	r0, #65504
 384 00b8 FFF7FEFF 		bl	UG_SetForecolor
 385              	.LVL50:
 114:main.c        ****     UG_PutString(5, 5 , bufferOut);
 386              		.loc 1 114 0
 387 00bc AD4C     		ldr	r4, .L21+20
 388 00be 4FF4F073 		mov	r3, #480
 389 00c2 4FF44872 		mov	r2, #800
 390 00c6 AC49     		ldr	r1, .L21+24
 391 00c8 2046     		mov	r0, r4
 392 00ca FFF7FEFF 		bl	sprintf
 393              	.LVL51:
 115:main.c        ****     UG_FontSelect(&FONT_12X16);
 394              		.loc 1 115 0
 395 00ce 2246     		mov	r2, r4
 396 00d0 0521     		movs	r1, #5
 397 00d2 0846     		mov	r0, r1
 398 00d4 FFF7FEFF 		bl	UG_PutString
 399              	.LVL52:
 116:main.c        ****     UG_SetBackcolor(C_BLACK);
 400              		.loc 1 116 0
 401 00d8 2846     		mov	r0, r5
 402 00da FFF7FEFF 		bl	UG_FontSelect
 403              	.LVL53:
 117:main.c        ****     UG_SetForecolor(C_YELLOW);
 404              		.loc 1 117 0
 405 00de 0020     		movs	r0, #0
 406 00e0 FFF7FEFF 		bl	UG_SetBackcolor
 407              	.LVL54:
 118:main.c        ****     UG_PutString(5, 23, "PSoC 5LP (CY8CKIT-050)");
 408              		.loc 1 118 0
 409 00e4 4FF6E070 		movw	r0, #65504
 410 00e8 FFF7FEFF 		bl	UG_SetForecolor
 411              	.LVL55:
 119:main.c        ****     UG_FontSelect(&FONT_22X36);
 412              		.loc 1 119 0
 413 00ec A34A     		ldr	r2, .L21+28
 414 00ee 1721     		movs	r1, #23
 415 00f0 0520     		movs	r0, #5
 416 00f2 FFF7FEFF 		bl	UG_PutString
ARM GAS  C:\Users\Sava\AppData\Local\Temp\ccaPCXf3.s 			page 14


 417              	.LVL56:
 120:main.c        ****     UG_SetBackcolor(C_BLACK);
 418              		.loc 1 120 0
 419 00f6 A248     		ldr	r0, .L21+32
 420 00f8 FFF7FEFF 		bl	UG_FontSelect
 421              	.LVL57:
 121:main.c        ****     UG_SetForecolor(C_WHITE);
 422              		.loc 1 121 0
 423 00fc 0020     		movs	r0, #0
 424 00fe FFF7FEFF 		bl	UG_SetBackcolor
 425              	.LVL58:
 122:main.c        ****     UG_PutString(400, 90, Name);        // Show the name from SDCard if the file exist, if not use 
 426              		.loc 1 122 0
 427 0102 4FF6FF70 		movw	r0, #65535
 428 0106 FFF7FEFF 		bl	UG_SetForecolor
 429              	.LVL59:
 123:main.c        ****     
 430              		.loc 1 123 0
 431 010a 04AA     		add	r2, sp, #16
 432 010c 5A21     		movs	r1, #90
 433 010e 4FF4C870 		mov	r0, #400
 434 0112 FFF7FEFF 		bl	UG_PutString
 435              	.LVL60:
 126:main.c        ****     // Window Title
 436              		.loc 1 126 0
 437 0116 9B4C     		ldr	r4, .L21+36
 438 0118 9B4B     		ldr	r3, .L21+40
 439 011a 0A22     		movs	r2, #10
 440 011c 9B49     		ldr	r1, .L21+44
 441 011e 2046     		mov	r0, r4
 442 0120 FFF7FEFF 		bl	UG_WindowCreate
 443              	.LVL61:
 128:main.c        ****     UG_WindowSetTitleTextFont(&window_1, &FONT_12X16);
 444              		.loc 1 128 0
 445 0124 9A49     		ldr	r1, .L21+48
 446 0126 2046     		mov	r0, r4
 447 0128 FFF7FEFF 		bl	UG_WindowSetTitleText
 448              	.LVL62:
 129:main.c        ****     UG_WindowSetXStart(&window_1, 275);
 449              		.loc 1 129 0
 450 012c 2946     		mov	r1, r5
 451 012e 2046     		mov	r0, r4
 452 0130 FFF7FEFF 		bl	UG_WindowSetTitleTextFont
 453              	.LVL63:
 130:main.c        ****     UG_WindowSetYStart(&window_1, 200);
 454              		.loc 1 130 0
 455 0134 40F21311 		movw	r1, #275
 456 0138 2046     		mov	r0, r4
 457 013a FFF7FEFF 		bl	UG_WindowSetXStart
 458              	.LVL64:
 131:main.c        ****     UG_WindowSetXEnd(&window_1, 725);       // Window 450x250
 459              		.loc 1 131 0
 460 013e C821     		movs	r1, #200
 461 0140 2046     		mov	r0, r4
 462 0142 FFF7FEFF 		bl	UG_WindowSetYStart
 463              	.LVL65:
 132:main.c        ****     UG_WindowSetYEnd(&window_1, 450);
ARM GAS  C:\Users\Sava\AppData\Local\Temp\ccaPCXf3.s 			page 15


 464              		.loc 1 132 0
 465 0146 40F2D521 		movw	r1, #725
 466 014a 2046     		mov	r0, r4
 467 014c FFF7FEFF 		bl	UG_WindowSetXEnd
 468              	.LVL66:
 133:main.c        ****     
 469              		.loc 1 133 0
 470 0150 4FF4E171 		mov	r1, #450
 471 0154 2046     		mov	r0, r4
 472 0156 FFF7FEFF 		bl	UG_WindowSetYEnd
 473              	.LVL67:
 136:main.c        ****     UG_ButtonCreate(&window_1, &button_2, BTN_ID_1, 10, 80, 110, 130);
 474              		.loc 1 136 0
 475 015a 3C23     		movs	r3, #60
 476 015c 0293     		str	r3, [sp, #8]
 477 015e 6E26     		movs	r6, #110
 478 0160 0196     		str	r6, [sp, #4]
 479 0162 0A25     		movs	r5, #10
 480 0164 0095     		str	r5, [sp]
 481 0166 2B46     		mov	r3, r5
 482 0168 0022     		movs	r2, #0
 483 016a 8A49     		ldr	r1, .L21+52
 484 016c 2046     		mov	r0, r4
 485 016e FFF7FEFF 		bl	UG_ButtonCreate
 486              	.LVL68:
 137:main.c        ****     UG_ButtonCreate(&window_1, &button_3, BTN_ID_2, 10, 150, 110, 200);
 487              		.loc 1 137 0
 488 0172 8223     		movs	r3, #130
 489 0174 0293     		str	r3, [sp, #8]
 490 0176 0196     		str	r6, [sp, #4]
 491 0178 4FF05008 		mov	r8, #80
 492 017c CDF80080 		str	r8, [sp]
 493 0180 2B46     		mov	r3, r5
 494 0182 0122     		movs	r2, #1
 495 0184 8449     		ldr	r1, .L21+56
 496 0186 2046     		mov	r0, r4
 497 0188 FFF7FEFF 		bl	UG_ButtonCreate
 498              	.LVL69:
 138:main.c        ****     UG_ButtonCreate(&window_1, &button_4, BTN_ID_3, 170, 100, 172 + logo.width, 102 + logo.height);
 499              		.loc 1 138 0
 500 018c C827     		movs	r7, #200
 501 018e 0297     		str	r7, [sp, #8]
 502 0190 0196     		str	r6, [sp, #4]
 503 0192 9623     		movs	r3, #150
 504 0194 0093     		str	r3, [sp]
 505 0196 2B46     		mov	r3, r5
 506 0198 0222     		movs	r2, #2
 507 019a 8049     		ldr	r1, .L21+60
 508 019c 2046     		mov	r0, r4
 509 019e FFF7FEFF 		bl	UG_ButtonCreate
 510              	.LVL70:
 139:main.c        ****     //Label Buttons
 511              		.loc 1 139 0
 512 01a2 CC23     		movs	r3, #204
 513 01a4 0293     		str	r3, [sp, #8]
 514 01a6 4FF4B773 		mov	r3, #366
 515 01aa 0193     		str	r3, [sp, #4]
ARM GAS  C:\Users\Sava\AppData\Local\Temp\ccaPCXf3.s 			page 16


 516 01ac 6423     		movs	r3, #100
 517 01ae 0093     		str	r3, [sp]
 518 01b0 AA23     		movs	r3, #170
 519 01b2 0322     		movs	r2, #3
 520 01b4 7A49     		ldr	r1, .L21+64
 521 01b6 2046     		mov	r0, r4
 522 01b8 FFF7FEFF 		bl	UG_ButtonCreate
 523              	.LVL71:
 141:main.c        ****     UG_ButtonSetForeColor(&window_1,BTN_ID_0, C_BLUE);
 524              		.loc 1 141 0
 525 01bc 794E     		ldr	r6, .L21+68
 526 01be 3246     		mov	r2, r6
 527 01c0 0021     		movs	r1, #0
 528 01c2 2046     		mov	r0, r4
 529 01c4 FFF7FEFF 		bl	UG_ButtonSetFont
 530              	.LVL72:
 142:main.c        ****     UG_ButtonSetText(&window_1,BTN_ID_0,"Button \nA");
 531              		.loc 1 142 0
 532 01c8 1F22     		movs	r2, #31
 533 01ca 0021     		movs	r1, #0
 534 01cc 2046     		mov	r0, r4
 535 01ce FFF7FEFF 		bl	UG_ButtonSetForeColor
 536              	.LVL73:
 143:main.c        ****     UG_ButtonSetFont(&window_1,BTN_ID_1,&FONT_8X14);
 537              		.loc 1 143 0
 538 01d2 754A     		ldr	r2, .L21+72
 539 01d4 0021     		movs	r1, #0
 540 01d6 2046     		mov	r0, r4
 541 01d8 FFF7FEFF 		bl	UG_ButtonSetText
 542              	.LVL74:
 144:main.c        ****     UG_ButtonSetForeColor(&window_1,BTN_ID_1, C_RED);
 543              		.loc 1 144 0
 544 01dc 3246     		mov	r2, r6
 545 01de 0121     		movs	r1, #1
 546 01e0 2046     		mov	r0, r4
 547 01e2 FFF7FEFF 		bl	UG_ButtonSetFont
 548              	.LVL75:
 145:main.c        ****     UG_ButtonSetText(&window_1,BTN_ID_1,"Button \nB");
 549              		.loc 1 145 0
 550 01e6 4FF47842 		mov	r2, #63488
 551 01ea 0121     		movs	r1, #1
 552 01ec 2046     		mov	r0, r4
 553 01ee FFF7FEFF 		bl	UG_ButtonSetForeColor
 554              	.LVL76:
 146:main.c        ****     UG_ButtonSetFont(&window_1,BTN_ID_2,&FONT_8X14);
 555              		.loc 1 146 0
 556 01f2 6E4A     		ldr	r2, .L21+76
 557 01f4 0121     		movs	r1, #1
 558 01f6 2046     		mov	r0, r4
 559 01f8 FFF7FEFF 		bl	UG_ButtonSetText
 560              	.LVL77:
 147:main.c        ****     UG_ButtonSetForeColor(&window_1,BTN_ID_2, C_BLACK);
 561              		.loc 1 147 0
 562 01fc 3246     		mov	r2, r6
 563 01fe 0221     		movs	r1, #2
 564 0200 2046     		mov	r0, r4
 565 0202 FFF7FEFF 		bl	UG_ButtonSetFont
ARM GAS  C:\Users\Sava\AppData\Local\Temp\ccaPCXf3.s 			page 17


 566              	.LVL78:
 148:main.c        ****     UG_ButtonSetText(&window_1,BTN_ID_2,"Button \nC");
 567              		.loc 1 148 0
 568 0206 0022     		movs	r2, #0
 569 0208 0221     		movs	r1, #2
 570 020a 2046     		mov	r0, r4
 571 020c FFF7FEFF 		bl	UG_ButtonSetForeColor
 572              	.LVL79:
 149:main.c        ****     
 573              		.loc 1 149 0
 574 0210 674A     		ldr	r2, .L21+80
 575 0212 0221     		movs	r1, #2
 576 0214 2046     		mov	r0, r4
 577 0216 FFF7FEFF 		bl	UG_ButtonSetText
 578              	.LVL80:
 152:main.c        ****     UG_TextboxSetFont(&window_1, TXB_ID_0, &FONT_16X26);
 579              		.loc 1 152 0
 580 021a CDF80880 		str	r8, [sp, #8]
 581 021e 4FF4DC73 		mov	r3, #440
 582 0222 0193     		str	r3, [sp, #4]
 583 0224 0095     		str	r5, [sp]
 584 0226 7823     		movs	r3, #120
 585 0228 0022     		movs	r2, #0
 586 022a 6249     		ldr	r1, .L21+84
 587 022c 2046     		mov	r0, r4
 588 022e FFF7FEFF 		bl	UG_TextboxCreate
 589              	.LVL81:
 153:main.c        ****     UG_TextboxSetText(&window_1, TXB_ID_0, "This is a \n test sample window!");
 590              		.loc 1 153 0
 591 0232 614A     		ldr	r2, .L21+88
 592 0234 0021     		movs	r1, #0
 593 0236 2046     		mov	r0, r4
 594 0238 FFF7FEFF 		bl	UG_TextboxSetFont
 595              	.LVL82:
 154:main.c        ****     UG_TextboxSetForeColor(&window_1, TXB_ID_0, C_BLACK);
 596              		.loc 1 154 0
 597 023c 5F4A     		ldr	r2, .L21+92
 598 023e 0021     		movs	r1, #0
 599 0240 2046     		mov	r0, r4
 600 0242 FFF7FEFF 		bl	UG_TextboxSetText
 601              	.LVL83:
 155:main.c        ****     UG_TextboxSetAlignment(&window_1, TXB_ID_0, ALIGN_CENTER);
 602              		.loc 1 155 0
 603 0246 0022     		movs	r2, #0
 604 0248 1146     		mov	r1, r2
 605 024a 2046     		mov	r0, r4
 606 024c FFF7FEFF 		bl	UG_TextboxSetForeColor
 607              	.LVL84:
 156:main.c        ****     
 608              		.loc 1 156 0
 609 0250 1222     		movs	r2, #18
 610 0252 0021     		movs	r1, #0
 611 0254 2046     		mov	r0, r4
 612 0256 FFF7FEFF 		bl	UG_TextboxSetAlignment
 613              	.LVL85:
 162:main.c        ****     UG_Update();
 614              		.loc 1 162 0
ARM GAS  C:\Users\Sava\AppData\Local\Temp\ccaPCXf3.s 			page 18


 615 025a 2046     		mov	r0, r4
 616 025c FFF7FEFF 		bl	UG_WindowShow
 617              	.LVL86:
 163:main.c        ****     
 618              		.loc 1 163 0
 619 0260 FFF7FEFF 		bl	UG_Update
 620              	.LVL87:
 166:main.c        ****     
 621              		.loc 1 166 0
 622 0264 E089     		ldrh	r0, [r4, #14]
 623 0266 218A     		ldrh	r1, [r4, #16]
 624 0268 01F1E003 		add	r3, r1, #224
 625 026c 00F5B872 		add	r2, r0, #368
 626 0270 7A31     		adds	r1, r1, #122
 627 0272 AD30     		adds	r0, r0, #173
 628 0274 524C     		ldr	r4, .L21+96
 629 0276 0094     		str	r4, [sp]
 630 0278 1BB2     		sxth	r3, r3
 631 027a 12B2     		sxth	r2, r2
 632 027c 09B2     		sxth	r1, r1
 633 027e 00B2     		sxth	r0, r0
 634 0280 FFF7FEFF 		bl	DrawExImage
 635              	.LVL88:
 169:main.c        ****     
 636              		.loc 1 169 0
 637 0284 44F64C53 		movw	r3, #19788
 638 0288 0193     		str	r3, [sp, #4]
 639 028a 4E4B     		ldr	r3, .L21+100
 640 028c 0093     		str	r3, [sp]
 641 028e 4FF49773 		mov	r3, #302
 642 0292 D622     		movs	r2, #214
 643 0294 3946     		mov	r1, r7
 644 0296 1420     		movs	r0, #20
 645 0298 FFF7FEFF 		bl	HW_DrawImage
 646              	.LVL89:
 647              	.L19:
 175:main.c        ****         UG_FillFrame(4, 50, 123, 155, colorb[0]);
 648              		.loc 1 175 0
 649 029c 4FF47843 		mov	r3, #63488
 650 02a0 0093     		str	r3, [sp]
 651 02a2 9C23     		movs	r3, #156
 652 02a4 7C22     		movs	r2, #124
 653 02a6 3121     		movs	r1, #49
 654 02a8 0320     		movs	r0, #3
 655 02aa FFF7FEFF 		bl	UG_DrawFrame
 656              	.LVL90:
 176:main.c        ****         UG_DrawFrame(126, 49, 247, 156, C_GREEN);
 657              		.loc 1 176 0
 658 02ae BDF87854 		ldrh	r5, [sp, #1144]
 659 02b2 0095     		str	r5, [sp]
 660 02b4 9B23     		movs	r3, #155
 661 02b6 7B22     		movs	r2, #123
 662 02b8 3221     		movs	r1, #50
 663 02ba 0420     		movs	r0, #4
 664 02bc FFF7FEFF 		bl	UG_FillFrame
 665              	.LVL91:
 177:main.c        ****         UG_FillFrame(127, 50, 246, 155, colorb[1]);
ARM GAS  C:\Users\Sava\AppData\Local\Temp\ccaPCXf3.s 			page 19


 666              		.loc 1 177 0
 667 02c0 4FF4FC63 		mov	r3, #2016
 668 02c4 0093     		str	r3, [sp]
 669 02c6 9C23     		movs	r3, #156
 670 02c8 F722     		movs	r2, #247
 671 02ca 3121     		movs	r1, #49
 672 02cc 7E20     		movs	r0, #126
 673 02ce FFF7FEFF 		bl	UG_DrawFrame
 674              	.LVL92:
 178:main.c        ****         UG_DrawFrame(249, 49, 370, 156, C_BLUE);
 675              		.loc 1 178 0
 676 02d2 BDF87A64 		ldrh	r6, [sp, #1146]
 677 02d6 0096     		str	r6, [sp]
 678 02d8 9B23     		movs	r3, #155
 679 02da F622     		movs	r2, #246
 680 02dc 3221     		movs	r1, #50
 681 02de 7F20     		movs	r0, #127
 682 02e0 FFF7FEFF 		bl	UG_FillFrame
 683              	.LVL93:
 179:main.c        ****         UG_FillFrame(250, 50, 369, 155, colorb[2]);
 684              		.loc 1 179 0
 685 02e4 1F23     		movs	r3, #31
 686 02e6 0093     		str	r3, [sp]
 687 02e8 9C23     		movs	r3, #156
 688 02ea 4FF4B972 		mov	r2, #370
 689 02ee 3121     		movs	r1, #49
 690 02f0 F920     		movs	r0, #249
 691 02f2 FFF7FEFF 		bl	UG_DrawFrame
 692              	.LVL94:
 180:main.c        ****         
 693              		.loc 1 180 0
 694 02f6 BDF87C44 		ldrh	r4, [sp, #1148]
 695 02fa 0094     		str	r4, [sp]
 696 02fc 9B23     		movs	r3, #155
 697 02fe 40F27112 		movw	r2, #369
 698 0302 3221     		movs	r1, #50
 699 0304 FA20     		movs	r0, #250
 700 0306 FFF7FEFF 		bl	UG_FillFrame
 701              	.LVL95:
 182:main.c        ****         
 702              		.loc 1 182 0
 703 030a FFF7FEFF 		bl	UG_Update
 704              	.LVL96:
 184:main.c        ****         colorb[3] = colorb[2];
 705              		.loc 1 184 0
 706 030e C820     		movs	r0, #200
 707 0310 FFF7FEFF 		bl	CyDelay
 708              	.LVL97:
 186:main.c        ****         colorb[1] = colorb[0];   
 709              		.loc 1 186 0
 710 0314 ADF87C64 		strh	r6, [sp, #1148]	@ movhi
 187:main.c        ****         colorb[0] = colorb[3];      
 711              		.loc 1 187 0
 712 0318 ADF87A54 		strh	r5, [sp, #1146]	@ movhi
 188:main.c        ****             
 713              		.loc 1 188 0
 714 031c ADF87844 		strh	r4, [sp, #1144]	@ movhi
ARM GAS  C:\Users\Sava\AppData\Local\Temp\ccaPCXf3.s 			page 20


 190:main.c        ****         {
 715              		.loc 1 190 0
 716 0320 FFF7FEFF 		bl	T_IRQ_Read
 717              	.LVL98:
 718 0324 0028     		cmp	r0, #0
 719 0326 67D1     		bne	.L16
 193:main.c        ****             Py = XPT2046_ReadPos(0x90);
 720              		.loc 1 193 0
 721 0328 9020     		movs	r0, #144
 722 032a FFF7FEFF 		bl	XPT2046_ReadPos
 723              	.LVL99:
 724 032e 264C     		ldr	r4, .L21+104
 725 0330 2080     		strh	r0, [r4]	@ movhi
 194:main.c        ****             XPT2046_ReadPos(0xd0);
 726              		.loc 1 194 0
 727 0332 9020     		movs	r0, #144
 728 0334 FFF7FEFF 		bl	XPT2046_ReadPos
 729              	.LVL100:
 730 0338 2080     		strh	r0, [r4]	@ movhi
 195:main.c        ****             Px = XPT2046_ReadPos(0xd0);
 731              		.loc 1 195 0
 732 033a D020     		movs	r0, #208
 733 033c FFF7FEFF 		bl	XPT2046_ReadPos
 734              	.LVL101:
 196:main.c        ****             if(XPT2046_ReadXY(&PosX, &PosY))    UG_TouchUpdate(PosX, PosY, TOUCH_STATE_PRESSED);   
 735              		.loc 1 196 0
 736 0340 D020     		movs	r0, #208
 737 0342 FFF7FEFF 		bl	XPT2046_ReadPos
 738              	.LVL102:
 739 0346 214B     		ldr	r3, .L21+108
 740 0348 1880     		strh	r0, [r3]	@ movhi
 197:main.c        ****             UG_FontSelect(&FONT_12X16);
 741              		.loc 1 197 0
 742 034a 2149     		ldr	r1, .L21+112
 743 034c 2148     		ldr	r0, .L21+116
 744 034e FFF7FEFF 		bl	XPT2046_ReadXY
 745              	.LVL103:
 746 0352 0028     		cmp	r0, #0
 747 0354 45D0     		beq	.L17
 197:main.c        ****             UG_FontSelect(&FONT_12X16);
 748              		.loc 1 197 0 is_stmt 0 discriminator 1
 749 0356 0122     		movs	r2, #1
 750 0358 1D4B     		ldr	r3, .L21+112
 751 035a B3F90010 		ldrsh	r1, [r3]
 752 035e 3BE0     		b	.L22
 753              	.L23:
 754              		.align	2
 755              	.L21:
 756 0360 00000000 		.word	.LANCHOR0
 757 0364 00000000 		.word	BtnPulsed
 758 0368 14000000 		.word	.LC2
 759 036c 94000000 		.word	.LC8
 760 0370 00000000 		.word	FONT_12X16
 761 0374 00000000 		.word	bufferOut
 762 0378 A0000000 		.word	.LC9
 763 037c B4000000 		.word	.LC10
 764 0380 00000000 		.word	FONT_22X36
ARM GAS  C:\Users\Sava\AppData\Local\Temp\ccaPCXf3.s 			page 21


 765 0384 00000000 		.word	window_1
 766 0388 00000000 		.word	window_1_callback
 767 038c 00000000 		.word	obj_buff_wnd_1
 768 0390 CC000000 		.word	.LC11
 769 0394 00000000 		.word	button_1
 770 0398 00000000 		.word	button_2
 771 039c 00000000 		.word	button_3
 772 03a0 00000000 		.word	button_4
 773 03a4 00000000 		.word	FONT_8X14
 774 03a8 EC000000 		.word	.LC12
 775 03ac F8000000 		.word	.LC13
 776 03b0 04010000 		.word	.LC14
 777 03b4 00000000 		.word	textbox_1
 778 03b8 00000000 		.word	FONT_16X26
 779 03bc 74000000 		.word	.LC7
 780 03c0 10010000 		.word	.LC15
 781 03c4 00000000 		.word	acCapture
 782 03c8 00000000 		.word	Py
 783 03cc 00000000 		.word	Px
 784 03d0 00000000 		.word	PosY
 785 03d4 00000000 		.word	PosX
 786              	.L22:
 787 03d8 254B     		ldr	r3, .L24
 788 03da B3F90000 		ldrsh	r0, [r3]
 789 03de FFF7FEFF 		bl	UG_TouchUpdate
 790              	.LVL104:
 791              	.L17:
 198:main.c        ****             UG_SetBackcolor(C_BLACK);
 792              		.loc 1 198 0 is_stmt 1
 793 03e2 2448     		ldr	r0, .L24+4
 794 03e4 FFF7FEFF 		bl	UG_FontSelect
 795              	.LVL105:
 199:main.c        ****             UG_SetForecolor(C_RED);
 796              		.loc 1 199 0
 797 03e8 0020     		movs	r0, #0
 798 03ea FFF7FEFF 		bl	UG_SetBackcolor
 799              	.LVL106:
 200:main.c        ****         }
 800              		.loc 1 200 0
 801 03ee 4FF47840 		mov	r0, #63488
 802 03f2 FFF7FEFF 		bl	UG_SetForecolor
 803              	.LVL107:
 804 03f6 0FE0     		b	.L18
 805              	.L16:
 204:main.c        ****             UG_FontSelect(&FONT_12X16);
 806              		.loc 1 204 0
 807 03f8 0022     		movs	r2, #0
 808 03fa 4FF0FF31 		mov	r1, #-1
 809 03fe 0846     		mov	r0, r1
 810 0400 FFF7FEFF 		bl	UG_TouchUpdate
 811              	.LVL108:
 205:main.c        ****             UG_SetBackcolor(C_BLACK);
 812              		.loc 1 205 0
 813 0404 1B48     		ldr	r0, .L24+4
 814 0406 FFF7FEFF 		bl	UG_FontSelect
 815              	.LVL109:
 206:main.c        ****             UG_SetForecolor(C_GREEN);
ARM GAS  C:\Users\Sava\AppData\Local\Temp\ccaPCXf3.s 			page 22


 816              		.loc 1 206 0
 817 040a 0020     		movs	r0, #0
 818 040c FFF7FEFF 		bl	UG_SetBackcolor
 819              	.LVL110:
 207:main.c        ****         }
 820              		.loc 1 207 0
 821 0410 4FF4FC60 		mov	r0, #2016
 822 0414 FFF7FEFF 		bl	UG_SetForecolor
 823              	.LVL111:
 824              	.L18:
 209:main.c        ****         UG_PutString(350, 5 , bufferOut);
 825              		.loc 1 209 0
 826 0418 174C     		ldr	r4, .L24+8
 827 041a 154B     		ldr	r3, .L24
 828 041c 1B88     		ldrh	r3, [r3]
 829 041e 174A     		ldr	r2, .L24+12
 830 0420 1288     		ldrh	r2, [r2]
 831 0422 1749     		ldr	r1, .L24+16
 832 0424 2046     		mov	r0, r4
 833 0426 FFF7FEFF 		bl	sprintf
 834              	.LVL112:
 210:main.c        ****         sprintf(bufferOut,"Y = %d | %d  ", Py, PosY);
 835              		.loc 1 210 0
 836 042a 2246     		mov	r2, r4
 837 042c 0521     		movs	r1, #5
 838 042e 4FF4AF70 		mov	r0, #350
 839 0432 FFF7FEFF 		bl	UG_PutString
 840              	.LVL113:
 211:main.c        ****         UG_PutString(350, 23, bufferOut);     
 841              		.loc 1 211 0
 842 0436 134B     		ldr	r3, .L24+20
 843 0438 1B88     		ldrh	r3, [r3]
 844 043a 134A     		ldr	r2, .L24+24
 845 043c 1288     		ldrh	r2, [r2]
 846 043e 1349     		ldr	r1, .L24+28
 847 0440 2046     		mov	r0, r4
 848 0442 FFF7FEFF 		bl	sprintf
 849              	.LVL114:
 212:main.c        ****         sprintf(bufferOut,"Z = %d   ", XPT2046_ReadZ());
 850              		.loc 1 212 0
 851 0446 2246     		mov	r2, r4
 852 0448 1721     		movs	r1, #23
 853 044a 4FF4AF70 		mov	r0, #350
 854 044e FFF7FEFF 		bl	UG_PutString
 855              	.LVL115:
 213:main.c        ****         UG_PutString(600, 13, bufferOut);
 856              		.loc 1 213 0
 857 0452 FFF7FEFF 		bl	XPT2046_ReadZ
 858              	.LVL116:
 859 0456 0246     		mov	r2, r0
 860 0458 0D49     		ldr	r1, .L24+32
 861 045a 2046     		mov	r0, r4
 862 045c FFF7FEFF 		bl	sprintf
 863              	.LVL117:
 214:main.c        ****     }
 864              		.loc 1 214 0
 865 0460 2246     		mov	r2, r4
ARM GAS  C:\Users\Sava\AppData\Local\Temp\ccaPCXf3.s 			page 23


 866 0462 0D21     		movs	r1, #13
 867 0464 4FF41670 		mov	r0, #600
 868 0468 FFF7FEFF 		bl	UG_PutString
 869              	.LVL118:
 215:main.c        **** }
 870              		.loc 1 215 0
 871 046c 16E7     		b	.L19
 872              	.L25:
 873 046e 00BF     		.align	2
 874              	.L24:
 875 0470 00000000 		.word	PosX
 876 0474 00000000 		.word	FONT_12X16
 877 0478 00000000 		.word	bufferOut
 878 047c 00000000 		.word	Px
 879 0480 1C010000 		.word	.LC16
 880 0484 00000000 		.word	PosY
 881 0488 00000000 		.word	Py
 882 048c 2C010000 		.word	.LC17
 883 0490 3C010000 		.word	.LC18
 884              		.cfi_endproc
 885              	.LFE64:
 886              		.size	main, .-main
 887              		.comm	obj_buff_wnd_1,320,4
 888              		.global	logo
 889              		.comm	image_1,8,4
 890              		.comm	textbox_1,20,4
 891              		.comm	button_4,24,4
 892              		.comm	button_3,24,4
 893              		.comm	button_2,24,4
 894              		.comm	button_1,24,4
 895              		.comm	window_1,52,4
 896              		.comm	BtnPulsed,2,2
 897              		.comm	Py,2,2
 898              		.comm	Px,2,2
 899              		.comm	bufferOut,40,4
 900              		.comm	PosY,2,2
 901              		.comm	PosX,2,2
 902              		.comm	gui1963,108,4
 903              		.section	.rodata
 904              		.align	2
 905              		.set	.LANCHOR0,. + 0
 906              	.LC0:
 907 0000 41       		.byte	65
 908 0001 6E       		.byte	110
 909 0002 64       		.byte	100
 910 0003 72       		.byte	114
 911 0004 65       		.byte	101
 912 0005 73       		.byte	115
 913 0006 20       		.byte	32
 914 0007 4E       		.byte	78
 915 0008 61       		.byte	97
 916 0009 76       		.byte	118
 917 000a 61       		.byte	97
 918 000b 73       		.byte	115
 919 000c 00       		.byte	0
 920 000d 000000   		.space	3
 921              		.type	logo, %object
ARM GAS  C:\Users\Sava\AppData\Local\Temp\ccaPCXf3.s 			page 24


 922              		.size	logo, 12
 923              	logo:
 924 0010 00000000 		.word	acCapture
 925 0014 C200     		.short	194
 926 0016 6600     		.short	102
 927 0018 00       		.byte	0
 928 0019 02       		.byte	2
 929 001a 0000     		.space	2
 930              		.section	.rodata.str1.4,"aMS",%progbits,1
 931              		.align	2
 932              	.LC1:
 933 0000 42757474 		.ascii	"Button B \012Pressed!\000"
 933      6F6E2042 
 933      200A5072 
 933      65737365 
 933      642100
 934 0013 00       		.space	1
 935              	.LC2:
 936 0014 00       		.ascii	"\000"
 937 0015 000000   		.space	3
 938              	.LC3:
 939 0018 4C6F672E 		.ascii	"Log.txt\000"
 939      74787400 
 940              	.LC4:
 941 0020 42757474 		.ascii	"Button B pressed %d times since reset\015\012\000"
 941      6F6E2042 
 941      20707265 
 941      73736564 
 941      20256420 
 942              	.LC5:
 943 0048 496D6167 		.ascii	"Image \012Pressed!\000"
 943      65200A50 
 943      72657373 
 943      65642100 
 944              	.LC6:
 945 0058 54686520 		.ascii	"The image was Pressed!\015\012\000"
 945      696D6167 
 945      65207761 
 945      73205072 
 945      65737365 
 946 0071 000000   		.space	3
 947              	.LC7:
 948 0074 54686973 		.ascii	"This is a \012 test sample window!\000"
 948      20697320 
 948      61200A20 
 948      74657374 
 948      2073616D 
 949              	.LC8:
 950 0094 4E616D65 		.ascii	"Name.txt\000"
 950      2E747874 
 950      00
 951 009d 000000   		.space	3
 952              	.LC9:
 953 00a0 54465420 		.ascii	"TFT 5\"   (%dx%d)\000"
 953      35222020 
 953      20282564 
 953      78256429 
ARM GAS  C:\Users\Sava\AppData\Local\Temp\ccaPCXf3.s 			page 25


 953      00
 954 00b1 000000   		.space	3
 955              	.LC10:
 956 00b4 50536F43 		.ascii	"PSoC 5LP (CY8CKIT-050)\000"
 956      20354C50 
 956      20284359 
 956      38434B49 
 956      542D3035 
 957 00cb 00       		.space	1
 958              	.LC11:
 959 00cc 54657374 		.ascii	"Test Window - \346GUI v0.31   \002\000"
 959      2057696E 
 959      646F7720 
 959      2D20E647 
 959      55492076 
 960 00e9 000000   		.space	3
 961              	.LC12:
 962 00ec 42757474 		.ascii	"Button \012A\000"
 962      6F6E200A 
 962      4100
 963 00f6 0000     		.space	2
 964              	.LC13:
 965 00f8 42757474 		.ascii	"Button \012B\000"
 965      6F6E200A 
 965      4200
 966 0102 0000     		.space	2
 967              	.LC14:
 968 0104 42757474 		.ascii	"Button \012C\000"
 968      6F6E200A 
 968      4300
 969 010e 0000     		.space	2
 970              	.LC15:
 971 0110 43353635 		.ascii	"C565a.dat\000"
 971      612E6461 
 971      7400
 972 011a 0000     		.space	2
 973              	.LC16:
 974 011c 58203D20 		.ascii	"X = %d | %d  \000"
 974      2564207C 
 974      20256420 
 974      2000
 975 012a 0000     		.space	2
 976              	.LC17:
 977 012c 59203D20 		.ascii	"Y = %d | %d  \000"
 977      2564207C 
 977      20256420 
 977      2000
 978 013a 0000     		.space	2
 979              	.LC18:
 980 013c 5A203D20 		.ascii	"Z = %d   \000"
 980      25642020 
 980      2000
 981              		.text
 982              	.Letext0:
 983              		.file 2 "c:\\program files (x86)\\cypress\\psoc creator\\4.2\\psoc creator\\import\\gnu\\arm\\5.4.
 984              		.file 3 "c:\\program files (x86)\\cypress\\psoc creator\\4.2\\psoc creator\\import\\gnu\\arm\\5.4.
 985              		.file 4 "Generated_Source\\PSoC5/cytypes.h"
ARM GAS  C:\Users\Sava\AppData\Local\Temp\ccaPCXf3.s 			page 26


 986              		.file 5 "uGUI_Library/ugui_config.h"
 987              		.file 6 "uGUI_Library/ugui.h"
 988              		.file 7 "TFT_Driver/../FatFs_Library/integer.h"
 989              		.file 8 "TFT_Driver/../FatFs_Library/diskio.h"
 990              		.file 9 "TFT_Driver/../FatFs_Library/ff.h"
 991              		.file 10 "Generated_Source\\PSoC5/core_cm3.h"
 992              		.file 11 "TFT_Driver/ugui_SSD1963.h"
 993              		.file 12 "Touch_Controller/XPT2046.h"
 994              		.file 13 "Images/Images.h"
 995              		.file 14 "Generated_Source\\PSoC5/LED4.h"
 996              		.file 15 "c:\\program files (x86)\\cypress\\psoc creator\\4.2\\psoc creator\\import\\gnu\\arm\\5.4
 997              		.file 16 "Generated_Source\\PSoC5/GraphicLCDIntf.h"
 998              		.file 17 "Generated_Source\\PSoC5/SPI.h"
 999              		.file 18 "Generated_Source\\PSoC5/SPI_SS.h"
 1000              		.file 19 "Generated_Source\\PSoC5/LED3.h"
 1001              		.file 20 "Generated_Source\\PSoC5/CyLib.h"
 1002              		.file 21 "Generated_Source\\PSoC5/D_BL.h"
 1003              		.file 22 "Generated_Source\\PSoC5/T_IRQ.h"