ARM GAS  C:\Users\Sava\AppData\Local\Temp\ccqwyLbK.s 			page 1


   1              		.syntax unified
   2              		.cpu cortex-m3
   3              		.fpu softvfp
   4              		.eabi_attribute 20, 1
   5              		.eabi_attribute 21, 1
   6              		.eabi_attribute 23, 3
   7              		.eabi_attribute 24, 1
   8              		.eabi_attribute 25, 1
   9              		.eabi_attribute 26, 1
  10              		.eabi_attribute 30, 1
  11              		.eabi_attribute 34, 1
  12              		.eabi_attribute 18, 4
  13              		.thumb
  14              		.syntax unified
  15              		.file	"sdcard.c"
  16              		.text
  17              	.Ltext0:
  18              		.cfi_sections	.debug_frame
  19              		.section	.text.xmit_mmc,"ax",%progbits
  20              		.align	2
  21              		.thumb
  22              		.thumb_func
  23              		.type	xmit_mmc, %function
  24              	xmit_mmc:
  25              	.LFB63:
  26              		.file 1 "FatFs_Library\\sdcard.c"
   1:FatFs_Library/sdcard.c **** /*------------------------------------------------------------------------/
   2:FatFs_Library/sdcard.c **** /  Foolproof MMCv3/SDv1/SDv2 (in SPI mode) control module
   3:FatFs_Library/sdcard.c **** /-------------------------------------------------------------------------/
   4:FatFs_Library/sdcard.c **** /
   5:FatFs_Library/sdcard.c **** /  Copyright (C) 2013, ChaN, all right reserved.
   6:FatFs_Library/sdcard.c **** /
   7:FatFs_Library/sdcard.c **** / * This software is a free software and there is NO WARRANTY.
   8:FatFs_Library/sdcard.c **** / * No restriction on use. You can use, modify and redistribute it for
   9:FatFs_Library/sdcard.c **** /   personal, non-profit or commercial products UNDER YOUR RESPONSIBILITY.
  10:FatFs_Library/sdcard.c **** / * Redistributions of source code must retain the above copyright notice.
  11:FatFs_Library/sdcard.c **** /
  12:FatFs_Library/sdcard.c **** /-------------------------------------------------------------------------/
  13:FatFs_Library/sdcard.c ****   Features and Limitations:
  14:FatFs_Library/sdcard.c **** 
  15:FatFs_Library/sdcard.c ****   * Easy to Port Bit-banging SPI
  16:FatFs_Library/sdcard.c ****     It uses only four GPIO pins. No complex peripheral needs to be used.
  17:FatFs_Library/sdcard.c **** 
  18:FatFs_Library/sdcard.c ****   * No Media Change Detection
  19:FatFs_Library/sdcard.c ****     Application program needs to perform a f_mount() after media change.
  20:FatFs_Library/sdcard.c **** 
  21:FatFs_Library/sdcard.c **** /-------------------------------------------------------------------------*/
  22:FatFs_Library/sdcard.c **** 
  23:FatFs_Library/sdcard.c **** 
  24:FatFs_Library/sdcard.c **** #include "diskio.h"		/* Common include file for FatFs and disk I/O layer */
  25:FatFs_Library/sdcard.c **** 
  26:FatFs_Library/sdcard.c **** 
  27:FatFs_Library/sdcard.c **** /*-------------------------------------------------------------------------*/
  28:FatFs_Library/sdcard.c **** /* Platform dependent macros and functions needed to be modified           */
  29:FatFs_Library/sdcard.c **** /*-------------------------------------------------------------------------*/
  30:FatFs_Library/sdcard.c **** 
  31:FatFs_Library/sdcard.c **** #include <project.h>
ARM GAS  C:\Users\Sava\AppData\Local\Temp\ccqwyLbK.s 			page 2


  32:FatFs_Library/sdcard.c **** #include <cytypes.h>
  33:FatFs_Library/sdcard.c **** 
  34:FatFs_Library/sdcard.c ****     /* Put here the same name of the SPI bus module you have used in schematic. */
  35:FatFs_Library/sdcard.c **** #define SPI_NAME                SPI  
  36:FatFs_Library/sdcard.c ****     /* Put here function used to control SPI SS line.
  37:FatFs_Library/sdcard.c ****        Example: 
  38:FatFs_Library/sdcard.c ****         - if using Cypress API macros: SPI_ss0_m_Write
  39:FatFs_Library/sdcard.c ****         - if using another gpio pint: SPI_SS_Write. */
  40:FatFs_Library/sdcard.c **** //#define mmSPI_SS_Write(value)   SPI_ss0_m_Write(value)
  41:FatFs_Library/sdcard.c **** #define mmSPI_SS_Write(value)     SPI_SS_Write(value)        
  42:FatFs_Library/sdcard.c **** 
  43:FatFs_Library/sdcard.c **** #define CS_DELAY_US             1
  44:FatFs_Library/sdcard.c **** #define M_DELAY_US              10
  45:FatFs_Library/sdcard.c **** 
  46:FatFs_Library/sdcard.c ****     /* Text substitution macros to avoid changing function names related to SPI API
  47:FatFs_Library/sdcard.c ****        if SPI module name is changed in schematic. */
  48:FatFs_Library/sdcard.c **** 
  49:FatFs_Library/sdcard.c **** #define CONCATENATE(name, function)                 CONCAT(name, function)
  50:FatFs_Library/sdcard.c **** #define CONCAT(name, function)                      name##function
  51:FatFs_Library/sdcard.c **** 
  52:FatFs_Library/sdcard.c **** #if (CY_PSOC4)
  53:FatFs_Library/sdcard.c **** 
  54:FatFs_Library/sdcard.c ****     #define mmSPI_SpiUartClearTxBuffer                  CONCATENATE(SPI_NAME, _SpiUartClearTxBuffer
  55:FatFs_Library/sdcard.c ****     #define mmSPI_SpiUartClearRxBuffer                  CONCATENATE(SPI_NAME, _SpiUartClearRxBuffer
  56:FatFs_Library/sdcard.c ****     #define mmSPI_SpiUartPutArray(a, b)                 CONCATENATE(SPI_NAME, _SpiUartPutArray(a, b
  57:FatFs_Library/sdcard.c ****     #define mmSPI_SpiUartWriteTxData(value)             CONCATENATE(SPI_NAME, _SpiUartWriteTxData(v
  58:FatFs_Library/sdcard.c ****     #define mmSPI_SpiUartReadRxData                     CONCATENATE(SPI_NAME, _SpiUartReadRxData)
  59:FatFs_Library/sdcard.c ****     #define mmSPI_GetMasterInterruptSource              CONCATENATE(SPI_NAME, _GetMasterInterruptSo
  60:FatFs_Library/sdcard.c ****     #define mmSPI_ClearMasterInterruptSource(value)     CONCATENATE(SPI_NAME, _ClearMasterInterrupt
  61:FatFs_Library/sdcard.c ****     #define mmSPI_INTR_MASTER_SPI_DONE                  CONCATENATE(SPI_NAME, _INTR_MASTER_SPI_DONE
  62:FatFs_Library/sdcard.c ****     
  63:FatFs_Library/sdcard.c **** #endif    
  64:FatFs_Library/sdcard.c **** 
  65:FatFs_Library/sdcard.c **** #if (CY_PSOC5LP) 
  66:FatFs_Library/sdcard.c ****     #define mmSPI_SpiUartClearTxBuffer                  CONCATENATE(SPI_NAME, _ClearTxBuffer)
  67:FatFs_Library/sdcard.c ****     #define mmSPI_SpiUartClearRxBuffer                  CONCATENATE(SPI_NAME, _ClearRxBuffer)    
  68:FatFs_Library/sdcard.c ****     #define mmSPI_SpiUartPutArray(a, b)                 CONCATENATE(SPI_NAME, _PutArray(a, b)) 
  69:FatFs_Library/sdcard.c ****     #define mmSPI_SpiUartWriteTxData(value)             CONCATENATE(SPI_NAME, _WriteTxData(value))
  70:FatFs_Library/sdcard.c ****     #define mmSPI_SpiUartReadRxData                     CONCATENATE(SPI_NAME, _ReadRxData)
  71:FatFs_Library/sdcard.c ****     #define mmSPI_GetMasterInterruptSource              CONCATENATE(SPI_NAME, _GetMasterInterruptSo
  72:FatFs_Library/sdcard.c ****     #define mmSPI_ClearMasterInterruptSource(value)     CONCATENATE(SPI_NAME, _ClearMasterInterrupt
  73:FatFs_Library/sdcard.c ****     #define mmSPI_INTR_MASTER_SPI_DONE                  CONCATENATE(SPI_NAME, _INTR_MASTER_SPI_DONE
  74:FatFs_Library/sdcard.c **** #endif 
  75:FatFs_Library/sdcard.c **** 
  76:FatFs_Library/sdcard.c ****     /* Delays. */
  77:FatFs_Library/sdcard.c **** #define dly_us(n)               CyDelayUs(n); /* Delay n microseconds. */
  78:FatFs_Library/sdcard.c **** 
  79:FatFs_Library/sdcard.c **** /*--------------------------------------------------------------------------
  80:FatFs_Library/sdcard.c **** 
  81:FatFs_Library/sdcard.c ****    Module Private Functions
  82:FatFs_Library/sdcard.c **** 
  83:FatFs_Library/sdcard.c **** ---------------------------------------------------------------------------*/
  84:FatFs_Library/sdcard.c **** 
  85:FatFs_Library/sdcard.c **** /* MMC/SD command (SPI mode) */
  86:FatFs_Library/sdcard.c **** #define CMD0	(0)			/* GO_IDLE_STATE */
  87:FatFs_Library/sdcard.c **** #define CMD1	(1)			/* SEND_OP_COND */
  88:FatFs_Library/sdcard.c **** #define	ACMD41	(0x80+41)	/* SEND_OP_COND (SDC) */
ARM GAS  C:\Users\Sava\AppData\Local\Temp\ccqwyLbK.s 			page 3


  89:FatFs_Library/sdcard.c **** #define CMD8	(8)			/* SEND_IF_COND */
  90:FatFs_Library/sdcard.c **** #define CMD9	(9)			/* SEND_CSD */
  91:FatFs_Library/sdcard.c **** #define CMD10	(10)		/* SEND_CID */
  92:FatFs_Library/sdcard.c **** #define CMD12	(12)		/* STOP_TRANSMISSION */
  93:FatFs_Library/sdcard.c **** #define CMD13	(13)		/* SEND_STATUS */
  94:FatFs_Library/sdcard.c **** #define ACMD13	(0x80+13)	/* SD_STATUS (SDC) */
  95:FatFs_Library/sdcard.c **** #define CMD16	(16)		/* SET_BLOCKLEN */
  96:FatFs_Library/sdcard.c **** #define CMD17	(17)		/* READ_SINGLE_BLOCK */
  97:FatFs_Library/sdcard.c **** #define CMD18	(18)		/* READ_MULTIPLE_BLOCK */
  98:FatFs_Library/sdcard.c **** #define CMD23	(23)		/* SET_BLOCK_COUNT */
  99:FatFs_Library/sdcard.c **** #define	ACMD23	(0x80+23)	/* SET_WR_BLK_ERASE_COUNT (SDC) */
 100:FatFs_Library/sdcard.c **** #define CMD24	(24)		/* WRITE_BLOCK */
 101:FatFs_Library/sdcard.c **** #define CMD25	(25)		/* WRITE_MULTIPLE_BLOCK */
 102:FatFs_Library/sdcard.c **** #define CMD32	(32)		/* ERASE_ER_BLK_START */
 103:FatFs_Library/sdcard.c **** #define CMD33	(33)		/* ERASE_ER_BLK_END */
 104:FatFs_Library/sdcard.c **** #define CMD38	(38)		/* ERASE */
 105:FatFs_Library/sdcard.c **** #define CMD55	(55)		/* APP_CMD */
 106:FatFs_Library/sdcard.c **** #define CMD58	(58)		/* READ_OCR */
 107:FatFs_Library/sdcard.c **** 
 108:FatFs_Library/sdcard.c **** 
 109:FatFs_Library/sdcard.c **** static DSTATUS Stat = STA_NOINIT;	/* Disk status */
 110:FatFs_Library/sdcard.c **** 
 111:FatFs_Library/sdcard.c **** static BYTE CardType;			/* b0:MMC, b1:SDv1, b2:SDv2, b3:Block addressing */
 112:FatFs_Library/sdcard.c **** 
 113:FatFs_Library/sdcard.c **** /*-----------------------------------------------------------------------*/
 114:FatFs_Library/sdcard.c **** /* Transmit bytes to the card                                            */
 115:FatFs_Library/sdcard.c **** /*-----------------------------------------------------------------------*/
 116:FatFs_Library/sdcard.c **** 
 117:FatFs_Library/sdcard.c **** static void xmit_mmc(const BYTE* buff, UINT bc)
 118:FatFs_Library/sdcard.c **** {
  27              		.loc 1 118 0
  28              		.cfi_startproc
  29              		@ args = 0, pretend = 0, frame = 0
  30              		@ frame_needed = 0, uses_anonymous_args = 0
  31              	.LVL0:
  32 0000 70B5     		push	{r4, r5, r6, lr}
  33              		.cfi_def_cfa_offset 16
  34              		.cfi_offset 4, -16
  35              		.cfi_offset 5, -12
  36              		.cfi_offset 6, -8
  37              		.cfi_offset 14, -4
  38 0002 0646     		mov	r6, r0
  39 0004 0D46     		mov	r5, r1
 119:FatFs_Library/sdcard.c **** 
 120:FatFs_Library/sdcard.c **** #if (CY_PSOC4)
 121:FatFs_Library/sdcard.c **** 
 122:FatFs_Library/sdcard.c ****     mmSPI_SpiUartClearTxBuffer();
 123:FatFs_Library/sdcard.c ****     mmSPI_SpiUartClearRxBuffer();
 124:FatFs_Library/sdcard.c ****     mmSPI_SpiUartPutArray(buff, bc);
 125:FatFs_Library/sdcard.c **** 
 126:FatFs_Library/sdcard.c ****     while(0u == (mmSPI_GetMasterInterruptSource() & mmSPI_INTR_MASTER_SPI_DONE));
 127:FatFs_Library/sdcard.c ****     
 128:FatFs_Library/sdcard.c **** #endif
 129:FatFs_Library/sdcard.c **** 
 130:FatFs_Library/sdcard.c **** #if (CY_PSOC5LP)
 131:FatFs_Library/sdcard.c ****     
 132:FatFs_Library/sdcard.c ****     UINT loop;
ARM GAS  C:\Users\Sava\AppData\Local\Temp\ccqwyLbK.s 			page 4


 133:FatFs_Library/sdcard.c ****     
 134:FatFs_Library/sdcard.c ****     SPI_ClearTxBuffer();
  40              		.loc 1 134 0
  41 0006 FFF7FEFF 		bl	SPI_ClearTxBuffer
  42              	.LVL1:
 135:FatFs_Library/sdcard.c ****     SPI_ClearRxBuffer();
  43              		.loc 1 135 0
  44 000a FFF7FEFF 		bl	SPI_ClearRxBuffer
  45              	.LVL2:
 136:FatFs_Library/sdcard.c ****     
 137:FatFs_Library/sdcard.c ****     for (loop = 0; loop < bc; loop++)
  46              		.loc 1 137 0
  47 000e 0024     		movs	r4, #0
  48 0010 03E0     		b	.L2
  49              	.LVL3:
  50              	.L3:
 138:FatFs_Library/sdcard.c ****         SPI_WriteTxData(buff[loop]);
  51              		.loc 1 138 0 discriminator 3
  52 0012 305D     		ldrb	r0, [r6, r4]	@ zero_extendqisi2
  53 0014 FFF7FEFF 		bl	SPI_WriteTxData
  54              	.LVL4:
 137:FatFs_Library/sdcard.c ****         SPI_WriteTxData(buff[loop]);
  55              		.loc 1 137 0 discriminator 3
  56 0018 0134     		adds	r4, r4, #1
  57              	.LVL5:
  58              	.L2:
 137:FatFs_Library/sdcard.c ****         SPI_WriteTxData(buff[loop]);
  59              		.loc 1 137 0 is_stmt 0 discriminator 1
  60 001a AC42     		cmp	r4, r5
  61 001c F9D3     		bcc	.L3
  62              	.L4:
 139:FatFs_Library/sdcard.c ****     
 140:FatFs_Library/sdcard.c ****     while (SPI_GetTxBufferSize()) {};
  63              		.loc 1 140 0 is_stmt 1 discriminator 1
  64 001e FFF7FEFF 		bl	SPI_GetTxBufferSize
  65              	.LVL6:
  66 0022 0028     		cmp	r0, #0
  67 0024 FBD1     		bne	.L4
 141:FatFs_Library/sdcard.c ****     
 142:FatFs_Library/sdcard.c **** #endif    
 143:FatFs_Library/sdcard.c **** }
  68              		.loc 1 143 0
  69 0026 70BD     		pop	{r4, r5, r6, pc}
  70              		.cfi_endproc
  71              	.LFE63:
  72              		.size	xmit_mmc, .-xmit_mmc
  73              		.section	.text.rcvr_mmc,"ax",%progbits
  74              		.align	2
  75              		.thumb
  76              		.thumb_func
  77              		.type	rcvr_mmc, %function
  78              	rcvr_mmc:
  79              	.LFB64:
 144:FatFs_Library/sdcard.c **** 
 145:FatFs_Library/sdcard.c **** 
 146:FatFs_Library/sdcard.c **** 
 147:FatFs_Library/sdcard.c **** /*-----------------------------------------------------------------------*/
ARM GAS  C:\Users\Sava\AppData\Local\Temp\ccqwyLbK.s 			page 5


 148:FatFs_Library/sdcard.c **** /* Receive bytes from the card                                           */
 149:FatFs_Library/sdcard.c **** /*-----------------------------------------------------------------------*/
 150:FatFs_Library/sdcard.c **** 
 151:FatFs_Library/sdcard.c **** static void rcvr_mmc(BYTE *buff, UINT bc)
 152:FatFs_Library/sdcard.c **** {
  80              		.loc 1 152 0
  81              		.cfi_startproc
  82              		@ args = 0, pretend = 0, frame = 0
  83              		@ frame_needed = 0, uses_anonymous_args = 0
  84              	.LVL7:
  85 0000 70B5     		push	{r4, r5, r6, lr}
  86              		.cfi_def_cfa_offset 16
  87              		.cfi_offset 4, -16
  88              		.cfi_offset 5, -12
  89              		.cfi_offset 6, -8
  90              		.cfi_offset 14, -4
  91 0002 0546     		mov	r5, r0
  92 0004 0C46     		mov	r4, r1
 153:FatFs_Library/sdcard.c **** 
 154:FatFs_Library/sdcard.c **** #if (CY_PSOC4) 
 155:FatFs_Library/sdcard.c ****     
 156:FatFs_Library/sdcard.c ****     mmSPI_SpiUartClearTxBuffer();
 157:FatFs_Library/sdcard.c ****     mmSPI_SpiUartClearRxBuffer();
 158:FatFs_Library/sdcard.c ****     
 159:FatFs_Library/sdcard.c ****     do
 160:FatFs_Library/sdcard.c ****     {
 161:FatFs_Library/sdcard.c **** 
 162:FatFs_Library/sdcard.c ****         mmSPI_SpiUartWriteTxData(0xFF);
 163:FatFs_Library/sdcard.c ****         while(0u == (mmSPI_GetMasterInterruptSource() & mmSPI_INTR_MASTER_SPI_DONE));
 164:FatFs_Library/sdcard.c ****         CyDelayUs(M_DELAY_US); // <*> adjust, why?
 165:FatFs_Library/sdcard.c ****         *buff++ = (BYTE)mmSPI_SpiUartReadRxData();
 166:FatFs_Library/sdcard.c **** 
 167:FatFs_Library/sdcard.c ****     } while (--bc);   
 168:FatFs_Library/sdcard.c ****     
 169:FatFs_Library/sdcard.c **** #endif    
 170:FatFs_Library/sdcard.c ****     
 171:FatFs_Library/sdcard.c **** #if (CY_PSOC5LP)
 172:FatFs_Library/sdcard.c ****     
 173:FatFs_Library/sdcard.c ****     SPI_ClearTxBuffer();
  93              		.loc 1 173 0
  94 0006 FFF7FEFF 		bl	SPI_ClearTxBuffer
  95              	.LVL8:
 174:FatFs_Library/sdcard.c ****     SPI_ClearRxBuffer();
  96              		.loc 1 174 0
  97 000a FFF7FEFF 		bl	SPI_ClearRxBuffer
  98              	.LVL9:
  99 000e 00E0     		b	.L8
 100              	.LVL10:
 101              	.L9:
 175:FatFs_Library/sdcard.c ****     
 176:FatFs_Library/sdcard.c ****     do
 177:FatFs_Library/sdcard.c ****     {
 178:FatFs_Library/sdcard.c **** 
 179:FatFs_Library/sdcard.c ****         SPI_WriteTxData(0xFF);
 180:FatFs_Library/sdcard.c ****         while (SPI_GetTxBufferSize()) {};
 181:FatFs_Library/sdcard.c ****         CyDelayUs(M_DELAY_US); // <*> adjust, why?
 182:FatFs_Library/sdcard.c ****         *buff++ = (BYTE)SPI_ReadRxData();
ARM GAS  C:\Users\Sava\AppData\Local\Temp\ccqwyLbK.s 			page 6


 102              		.loc 1 182 0
 103 0010 3546     		mov	r5, r6
 104              	.LVL11:
 105              	.L8:
 179:FatFs_Library/sdcard.c ****         while (SPI_GetTxBufferSize()) {};
 106              		.loc 1 179 0
 107 0012 FF20     		movs	r0, #255
 108 0014 FFF7FEFF 		bl	SPI_WriteTxData
 109              	.LVL12:
 110              	.L7:
 180:FatFs_Library/sdcard.c ****         CyDelayUs(M_DELAY_US); // <*> adjust, why?
 111              		.loc 1 180 0 discriminator 1
 112 0018 FFF7FEFF 		bl	SPI_GetTxBufferSize
 113              	.LVL13:
 114 001c 0028     		cmp	r0, #0
 115 001e FBD1     		bne	.L7
 181:FatFs_Library/sdcard.c ****         *buff++ = (BYTE)SPI_ReadRxData();
 116              		.loc 1 181 0
 117 0020 0A20     		movs	r0, #10
 118 0022 FFF7FEFF 		bl	CyDelayUs
 119              	.LVL14:
 120              		.loc 1 182 0
 121 0026 6E1C     		adds	r6, r5, #1
 122              	.LVL15:
 123 0028 FFF7FEFF 		bl	SPI_ReadRxData
 124              	.LVL16:
 125 002c 2870     		strb	r0, [r5]
 126              	.LVL17:
 183:FatFs_Library/sdcard.c **** 
 184:FatFs_Library/sdcard.c ****     } while (--bc);    
 127              		.loc 1 184 0
 128 002e 013C     		subs	r4, r4, #1
 129              	.LVL18:
 130 0030 EED1     		bne	.L9
 185:FatFs_Library/sdcard.c ****     
 186:FatFs_Library/sdcard.c **** #endif        
 187:FatFs_Library/sdcard.c **** 
 188:FatFs_Library/sdcard.c **** }
 131              		.loc 1 188 0
 132 0032 70BD     		pop	{r4, r5, r6, pc}
 133              		.cfi_endproc
 134              	.LFE64:
 135              		.size	rcvr_mmc, .-rcvr_mmc
 136              		.section	.text.wait_ready,"ax",%progbits
 137              		.align	2
 138              		.thumb
 139              		.thumb_func
 140              		.type	wait_ready, %function
 141              	wait_ready:
 142              	.LFB65:
 189:FatFs_Library/sdcard.c **** 
 190:FatFs_Library/sdcard.c **** 
 191:FatFs_Library/sdcard.c **** 
 192:FatFs_Library/sdcard.c **** /*-----------------------------------------------------------------------*/
 193:FatFs_Library/sdcard.c **** /* Wait for card ready                                                   */
 194:FatFs_Library/sdcard.c **** /*-----------------------------------------------------------------------*/
 195:FatFs_Library/sdcard.c **** 
ARM GAS  C:\Users\Sava\AppData\Local\Temp\ccqwyLbK.s 			page 7


 196:FatFs_Library/sdcard.c **** static int wait_ready(void)	/* 1:OK, 0:Timeout */
 197:FatFs_Library/sdcard.c **** {
 143              		.loc 1 197 0
 144              		.cfi_startproc
 145              		@ args = 0, pretend = 0, frame = 8
 146              		@ frame_needed = 0, uses_anonymous_args = 0
 147 0000 10B5     		push	{r4, lr}
 148              		.cfi_def_cfa_offset 8
 149              		.cfi_offset 4, -8
 150              		.cfi_offset 14, -4
 151 0002 82B0     		sub	sp, sp, #8
 152              		.cfi_def_cfa_offset 16
 153              	.LVL19:
 198:FatFs_Library/sdcard.c **** 	BYTE d;
 199:FatFs_Library/sdcard.c **** 	UINT tmr;
 200:FatFs_Library/sdcard.c **** 
 201:FatFs_Library/sdcard.c **** 	for (tmr = 5000; tmr; tmr--) {	/* Wait for ready in timeout of 500ms */
 154              		.loc 1 201 0
 155 0004 41F28834 		movw	r4, #5000
 156 0008 0CE0     		b	.L12
 157              	.LVL20:
 158              	.L14:
 202:FatFs_Library/sdcard.c **** 		rcvr_mmc(&d, 1);
 159              		.loc 1 202 0
 160 000a 0121     		movs	r1, #1
 161 000c 0DF10700 		add	r0, sp, #7
 162 0010 FFF7FEFF 		bl	rcvr_mmc
 163              	.LVL21:
 203:FatFs_Library/sdcard.c **** 		if (d == 0xFF) break;
 164              		.loc 1 203 0
 165 0014 9DF80730 		ldrb	r3, [sp, #7]	@ zero_extendqisi2
 166 0018 FF2B     		cmp	r3, #255
 167 001a 05D0     		beq	.L13
 204:FatFs_Library/sdcard.c **** 		dly_us(100);
 168              		.loc 1 204 0 discriminator 2
 169 001c 6420     		movs	r0, #100
 170 001e FFF7FEFF 		bl	CyDelayUs
 171              	.LVL22:
 201:FatFs_Library/sdcard.c **** 		rcvr_mmc(&d, 1);
 172              		.loc 1 201 0 discriminator 2
 173 0022 013C     		subs	r4, r4, #1
 174              	.LVL23:
 175              	.L12:
 201:FatFs_Library/sdcard.c **** 		rcvr_mmc(&d, 1);
 176              		.loc 1 201 0 is_stmt 0 discriminator 1
 177 0024 002C     		cmp	r4, #0
 178 0026 F0D1     		bne	.L14
 179              	.L13:
 205:FatFs_Library/sdcard.c **** 	}
 206:FatFs_Library/sdcard.c **** 
 207:FatFs_Library/sdcard.c **** 	return tmr ? 1 : 0;
 208:FatFs_Library/sdcard.c **** }
 180              		.loc 1 208 0 is_stmt 1
 181 0028 201C     		adds	r0, r4, #0
 182 002a 18BF     		it	ne
 183 002c 0120     		movne	r0, #1
 184 002e 02B0     		add	sp, sp, #8
ARM GAS  C:\Users\Sava\AppData\Local\Temp\ccqwyLbK.s 			page 8


 185              		.cfi_def_cfa_offset 8
 186              		@ sp needed
 187 0030 10BD     		pop	{r4, pc}
 188              		.cfi_endproc
 189              	.LFE65:
 190              		.size	wait_ready, .-wait_ready
 191 0032 00BF     		.section	.text.rcvr_datablock,"ax",%progbits
 192              		.align	2
 193              		.thumb
 194              		.thumb_func
 195              		.type	rcvr_datablock, %function
 196              	rcvr_datablock:
 197              	.LFB68:
 209:FatFs_Library/sdcard.c **** 
 210:FatFs_Library/sdcard.c **** /*-----------------------------------------------------------------------*/
 211:FatFs_Library/sdcard.c **** /* Deselect the card and release SPI bus                                 */
 212:FatFs_Library/sdcard.c **** /*-----------------------------------------------------------------------*/
 213:FatFs_Library/sdcard.c **** 
 214:FatFs_Library/sdcard.c **** static void deselect(void)
 215:FatFs_Library/sdcard.c **** {
 216:FatFs_Library/sdcard.c **** 	BYTE d;
 217:FatFs_Library/sdcard.c **** 
 218:FatFs_Library/sdcard.c ****     mmSPI_SS_Write(1);
 219:FatFs_Library/sdcard.c ****     CyDelayUs(CS_DELAY_US); // <*> adjust
 220:FatFs_Library/sdcard.c **** 	rcvr_mmc(&d, 1);	/* Dummy clock (force DO hi-z for multiple slave SPI) */
 221:FatFs_Library/sdcard.c **** }
 222:FatFs_Library/sdcard.c **** 
 223:FatFs_Library/sdcard.c **** /*-----------------------------------------------------------------------*/
 224:FatFs_Library/sdcard.c **** /* Select the card and wait for ready                                    */
 225:FatFs_Library/sdcard.c **** /*-----------------------------------------------------------------------*/
 226:FatFs_Library/sdcard.c **** 
 227:FatFs_Library/sdcard.c **** static int select(void)	/* 1:OK, 0:Timeout */
 228:FatFs_Library/sdcard.c **** {
 229:FatFs_Library/sdcard.c **** 	BYTE d;
 230:FatFs_Library/sdcard.c **** 
 231:FatFs_Library/sdcard.c ****     mmSPI_SS_Write(0);
 232:FatFs_Library/sdcard.c ****     CyDelayUs(CS_DELAY_US); // <*> adjust
 233:FatFs_Library/sdcard.c **** 	rcvr_mmc(&d, 1);	/* Dummy clock (force DO enabled) */
 234:FatFs_Library/sdcard.c **** 	if (wait_ready()) return 1;	/* Wait for card ready */
 235:FatFs_Library/sdcard.c **** 
 236:FatFs_Library/sdcard.c **** 	deselect();
 237:FatFs_Library/sdcard.c **** 	return 0;			/* Failed */
 238:FatFs_Library/sdcard.c **** }
 239:FatFs_Library/sdcard.c **** 
 240:FatFs_Library/sdcard.c **** /*-----------------------------------------------------------------------*/
 241:FatFs_Library/sdcard.c **** /* Receive a data packet from the card                                   */
 242:FatFs_Library/sdcard.c **** /*-----------------------------------------------------------------------*/
 243:FatFs_Library/sdcard.c **** 
 244:FatFs_Library/sdcard.c **** static int rcvr_datablock(BYTE *buff, UINT btr) 	/* 1:OK, 0:Failed */
 245:FatFs_Library/sdcard.c **** {
 198              		.loc 1 245 0
 199              		.cfi_startproc
 200              		@ args = 0, pretend = 0, frame = 8
 201              		@ frame_needed = 0, uses_anonymous_args = 0
 202              	.LVL24:
 203 0000 70B5     		push	{r4, r5, r6, lr}
 204              		.cfi_def_cfa_offset 16
ARM GAS  C:\Users\Sava\AppData\Local\Temp\ccqwyLbK.s 			page 9


 205              		.cfi_offset 4, -16
 206              		.cfi_offset 5, -12
 207              		.cfi_offset 6, -8
 208              		.cfi_offset 14, -4
 209 0002 82B0     		sub	sp, sp, #8
 210              		.cfi_def_cfa_offset 24
 211 0004 0546     		mov	r5, r0
 212 0006 0E46     		mov	r6, r1
 213              	.LVL25:
 246:FatFs_Library/sdcard.c **** 	BYTE d[2];
 247:FatFs_Library/sdcard.c **** 	UINT tmr;
 248:FatFs_Library/sdcard.c **** 
 249:FatFs_Library/sdcard.c **** 	for (tmr = 1000; tmr; tmr--) {	/* Wait for data packet in timeout of 100ms */
 214              		.loc 1 249 0
 215 0008 4FF47A74 		mov	r4, #1000
 216 000c 0BE0     		b	.L17
 217              	.LVL26:
 218              	.L19:
 250:FatFs_Library/sdcard.c **** 		rcvr_mmc(d, 1);
 219              		.loc 1 250 0
 220 000e 0121     		movs	r1, #1
 221 0010 01A8     		add	r0, sp, #4
 222 0012 FFF7FEFF 		bl	rcvr_mmc
 223              	.LVL27:
 251:FatFs_Library/sdcard.c **** 		if (d[0] != 0xFF) break;
 224              		.loc 1 251 0
 225 0016 9DF80430 		ldrb	r3, [sp, #4]	@ zero_extendqisi2
 226 001a FF2B     		cmp	r3, #255
 227 001c 05D1     		bne	.L18
 252:FatFs_Library/sdcard.c **** 		dly_us(100);
 228              		.loc 1 252 0 discriminator 2
 229 001e 6420     		movs	r0, #100
 230 0020 FFF7FEFF 		bl	CyDelayUs
 231              	.LVL28:
 249:FatFs_Library/sdcard.c **** 		rcvr_mmc(d, 1);
 232              		.loc 1 249 0 discriminator 2
 233 0024 013C     		subs	r4, r4, #1
 234              	.LVL29:
 235              	.L17:
 249:FatFs_Library/sdcard.c **** 		rcvr_mmc(d, 1);
 236              		.loc 1 249 0 is_stmt 0 discriminator 1
 237 0026 002C     		cmp	r4, #0
 238 0028 F1D1     		bne	.L19
 239              	.L18:
 253:FatFs_Library/sdcard.c **** 	}
 254:FatFs_Library/sdcard.c **** 	if (d[0] != 0xFE) return 0;		/* If not valid data token, return with error */
 240              		.loc 1 254 0 is_stmt 1
 241 002a 9DF80430 		ldrb	r3, [sp, #4]	@ zero_extendqisi2
 242 002e FE2B     		cmp	r3, #254
 243 0030 09D1     		bne	.L21
 255:FatFs_Library/sdcard.c **** 
 256:FatFs_Library/sdcard.c **** 	rcvr_mmc(buff, btr);			/* Receive the data block into buffer */
 244              		.loc 1 256 0
 245 0032 3146     		mov	r1, r6
 246 0034 2846     		mov	r0, r5
 247 0036 FFF7FEFF 		bl	rcvr_mmc
 248              	.LVL30:
ARM GAS  C:\Users\Sava\AppData\Local\Temp\ccqwyLbK.s 			page 10


 257:FatFs_Library/sdcard.c **** 	rcvr_mmc(d, 2);					/* Discard CRC */
 249              		.loc 1 257 0
 250 003a 0221     		movs	r1, #2
 251 003c 01A8     		add	r0, sp, #4
 252 003e FFF7FEFF 		bl	rcvr_mmc
 253              	.LVL31:
 258:FatFs_Library/sdcard.c **** 
 259:FatFs_Library/sdcard.c **** 	return 1;						/* Return with success */
 254              		.loc 1 259 0
 255 0042 0120     		movs	r0, #1
 256 0044 00E0     		b	.L20
 257              	.L21:
 254:FatFs_Library/sdcard.c **** 
 258              		.loc 1 254 0
 259 0046 0020     		movs	r0, #0
 260              	.L20:
 260:FatFs_Library/sdcard.c **** }
 261              		.loc 1 260 0
 262 0048 02B0     		add	sp, sp, #8
 263              		.cfi_def_cfa_offset 16
 264              		@ sp needed
 265 004a 70BD     		pop	{r4, r5, r6, pc}
 266              		.cfi_endproc
 267              	.LFE68:
 268              		.size	rcvr_datablock, .-rcvr_datablock
 269              		.section	.text.xmit_datablock,"ax",%progbits
 270              		.align	2
 271              		.thumb
 272              		.thumb_func
 273              		.type	xmit_datablock, %function
 274              	xmit_datablock:
 275              	.LFB69:
 261:FatFs_Library/sdcard.c **** 
 262:FatFs_Library/sdcard.c **** /*-----------------------------------------------------------------------*/
 263:FatFs_Library/sdcard.c **** /* Send a data packet to the card                                        */
 264:FatFs_Library/sdcard.c **** /*-----------------------------------------------------------------------*/
 265:FatFs_Library/sdcard.c **** 
 266:FatFs_Library/sdcard.c **** static int xmit_datablock(const BYTE *buff, BYTE token)	/* 1:OK, 0:Failed */
 267:FatFs_Library/sdcard.c **** {
 276              		.loc 1 267 0
 277              		.cfi_startproc
 278              		@ args = 0, pretend = 0, frame = 8
 279              		@ frame_needed = 0, uses_anonymous_args = 0
 280              	.LVL32:
 281 0000 30B5     		push	{r4, r5, lr}
 282              		.cfi_def_cfa_offset 12
 283              		.cfi_offset 4, -12
 284              		.cfi_offset 5, -8
 285              		.cfi_offset 14, -4
 286 0002 83B0     		sub	sp, sp, #12
 287              		.cfi_def_cfa_offset 24
 288 0004 0546     		mov	r5, r0
 289 0006 0C46     		mov	r4, r1
 268:FatFs_Library/sdcard.c **** 	BYTE d[2];
 269:FatFs_Library/sdcard.c **** 
 270:FatFs_Library/sdcard.c **** 	if (!wait_ready()) return 0;
 290              		.loc 1 270 0
ARM GAS  C:\Users\Sava\AppData\Local\Temp\ccqwyLbK.s 			page 11


 291 0008 FFF7FEFF 		bl	wait_ready
 292              	.LVL33:
 293 000c 0346     		mov	r3, r0
 294 000e 28B3     		cbz	r0, .L24
 271:FatFs_Library/sdcard.c **** 
 272:FatFs_Library/sdcard.c **** 	d[0] = token;
 295              		.loc 1 272 0
 296 0010 02A8     		add	r0, sp, #8
 297 0012 00F8044D 		strb	r4, [r0, #-4]!
 273:FatFs_Library/sdcard.c **** 	xmit_mmc(d, 1);				/* Xmit a token */
 298              		.loc 1 273 0
 299 0016 0121     		movs	r1, #1
 300 0018 FFF7FEFF 		bl	xmit_mmc
 301              	.LVL34:
 274:FatFs_Library/sdcard.c ****     CyDelayUs(M_DELAY_US); // <*> why?
 302              		.loc 1 274 0
 303 001c 0A20     		movs	r0, #10
 304 001e FFF7FEFF 		bl	CyDelayUs
 305              	.LVL35:
 275:FatFs_Library/sdcard.c **** 	if (token != 0xFD) {		/* Is it data token? */
 306              		.loc 1 275 0
 307 0022 FD2C     		cmp	r4, #253
 308 0024 17D0     		beq	.L25
 276:FatFs_Library/sdcard.c **** 		xmit_mmc(buff, 512);	/* Xmit the 512 byte data block to MMC */
 309              		.loc 1 276 0
 310 0026 4FF40071 		mov	r1, #512
 311 002a 2846     		mov	r0, r5
 312 002c FFF7FEFF 		bl	xmit_mmc
 313              	.LVL36:
 277:FatFs_Library/sdcard.c ****         CyDelayUs(M_DELAY_US); // <*> why?
 314              		.loc 1 277 0
 315 0030 0A20     		movs	r0, #10
 316 0032 FFF7FEFF 		bl	CyDelayUs
 317              	.LVL37:
 278:FatFs_Library/sdcard.c **** 		rcvr_mmc(d, 2);			/* Xmit dummy CRC (0xFF,0xFF) */
 318              		.loc 1 278 0
 319 0036 0221     		movs	r1, #2
 320 0038 01A8     		add	r0, sp, #4
 321 003a FFF7FEFF 		bl	rcvr_mmc
 322              	.LVL38:
 279:FatFs_Library/sdcard.c **** 		rcvr_mmc(d, 1);			/* Receive data response */
 323              		.loc 1 279 0
 324 003e 0121     		movs	r1, #1
 325 0040 01A8     		add	r0, sp, #4
 326 0042 FFF7FEFF 		bl	rcvr_mmc
 327              	.LVL39:
 280:FatFs_Library/sdcard.c **** 		if ((d[0] & 0x1F) != 0x05)	/* If not accepted, return with error */
 328              		.loc 1 280 0
 329 0046 9DF80430 		ldrb	r3, [sp, #4]	@ zero_extendqisi2
 330 004a 03F01F03 		and	r3, r3, #31
 331 004e 052B     		cmp	r3, #5
 332 0050 03D0     		beq	.L26
 281:FatFs_Library/sdcard.c **** 			return 0;
 333              		.loc 1 281 0
 334 0052 0023     		movs	r3, #0
 335 0054 02E0     		b	.L24
 336              	.L25:
ARM GAS  C:\Users\Sava\AppData\Local\Temp\ccqwyLbK.s 			page 12


 282:FatFs_Library/sdcard.c **** 	}
 283:FatFs_Library/sdcard.c **** 
 284:FatFs_Library/sdcard.c **** 	return 1;
 337              		.loc 1 284 0
 338 0056 0123     		movs	r3, #1
 339 0058 00E0     		b	.L24
 340              	.L26:
 341 005a 0123     		movs	r3, #1
 342              	.L24:
 285:FatFs_Library/sdcard.c **** }
 343              		.loc 1 285 0
 344 005c 1846     		mov	r0, r3
 345 005e 03B0     		add	sp, sp, #12
 346              		.cfi_def_cfa_offset 12
 347              		@ sp needed
 348 0060 30BD     		pop	{r4, r5, pc}
 349              		.cfi_endproc
 350              	.LFE69:
 351              		.size	xmit_datablock, .-xmit_datablock
 352 0062 00BF     		.section	.text.deselect,"ax",%progbits
 353              		.align	2
 354              		.thumb
 355              		.thumb_func
 356              		.type	deselect, %function
 357              	deselect:
 358              	.LFB66:
 215:FatFs_Library/sdcard.c **** 	BYTE d;
 359              		.loc 1 215 0
 360              		.cfi_startproc
 361              		@ args = 0, pretend = 0, frame = 8
 362              		@ frame_needed = 0, uses_anonymous_args = 0
 363 0000 00B5     		push	{lr}
 364              		.cfi_def_cfa_offset 4
 365              		.cfi_offset 14, -4
 366 0002 83B0     		sub	sp, sp, #12
 367              		.cfi_def_cfa_offset 16
 218:FatFs_Library/sdcard.c ****     CyDelayUs(CS_DELAY_US); // <*> adjust
 368              		.loc 1 218 0
 369 0004 0120     		movs	r0, #1
 370 0006 FFF7FEFF 		bl	SPI_SS_Write
 371              	.LVL40:
 219:FatFs_Library/sdcard.c **** 	rcvr_mmc(&d, 1);	/* Dummy clock (force DO hi-z for multiple slave SPI) */
 372              		.loc 1 219 0
 373 000a 0120     		movs	r0, #1
 374 000c FFF7FEFF 		bl	CyDelayUs
 375              	.LVL41:
 220:FatFs_Library/sdcard.c **** }
 376              		.loc 1 220 0
 377 0010 0121     		movs	r1, #1
 378 0012 0DF10700 		add	r0, sp, #7
 379 0016 FFF7FEFF 		bl	rcvr_mmc
 380              	.LVL42:
 221:FatFs_Library/sdcard.c **** 
 381              		.loc 1 221 0
 382 001a 03B0     		add	sp, sp, #12
 383              		.cfi_def_cfa_offset 4
 384              		@ sp needed
ARM GAS  C:\Users\Sava\AppData\Local\Temp\ccqwyLbK.s 			page 13


 385 001c 5DF804FB 		ldr	pc, [sp], #4
 386              		.cfi_endproc
 387              	.LFE66:
 388              		.size	deselect, .-deselect
 389              		.section	.text.select,"ax",%progbits
 390              		.align	2
 391              		.thumb
 392              		.thumb_func
 393              		.type	select, %function
 394              	select:
 395              	.LFB67:
 228:FatFs_Library/sdcard.c **** 	BYTE d;
 396              		.loc 1 228 0
 397              		.cfi_startproc
 398              		@ args = 0, pretend = 0, frame = 8
 399              		@ frame_needed = 0, uses_anonymous_args = 0
 400 0000 10B5     		push	{r4, lr}
 401              		.cfi_def_cfa_offset 8
 402              		.cfi_offset 4, -8
 403              		.cfi_offset 14, -4
 404 0002 82B0     		sub	sp, sp, #8
 405              		.cfi_def_cfa_offset 16
 231:FatFs_Library/sdcard.c ****     CyDelayUs(CS_DELAY_US); // <*> adjust
 406              		.loc 1 231 0
 407 0004 0020     		movs	r0, #0
 408 0006 FFF7FEFF 		bl	SPI_SS_Write
 409              	.LVL43:
 232:FatFs_Library/sdcard.c **** 	rcvr_mmc(&d, 1);	/* Dummy clock (force DO enabled) */
 410              		.loc 1 232 0
 411 000a 0120     		movs	r0, #1
 412 000c FFF7FEFF 		bl	CyDelayUs
 413              	.LVL44:
 233:FatFs_Library/sdcard.c **** 	if (wait_ready()) return 1;	/* Wait for card ready */
 414              		.loc 1 233 0
 415 0010 0121     		movs	r1, #1
 416 0012 0DF10700 		add	r0, sp, #7
 417 0016 FFF7FEFF 		bl	rcvr_mmc
 418              	.LVL45:
 234:FatFs_Library/sdcard.c **** 
 419              		.loc 1 234 0
 420 001a FFF7FEFF 		bl	wait_ready
 421              	.LVL46:
 422 001e 18B9     		cbnz	r0, .L32
 423 0020 0446     		mov	r4, r0
 236:FatFs_Library/sdcard.c **** 	return 0;			/* Failed */
 424              		.loc 1 236 0
 425 0022 FFF7FEFF 		bl	deselect
 426              	.LVL47:
 237:FatFs_Library/sdcard.c **** }
 427              		.loc 1 237 0
 428 0026 00E0     		b	.L31
 429              	.L32:
 234:FatFs_Library/sdcard.c **** 
 430              		.loc 1 234 0
 431 0028 0124     		movs	r4, #1
 432              	.L31:
 238:FatFs_Library/sdcard.c **** 
ARM GAS  C:\Users\Sava\AppData\Local\Temp\ccqwyLbK.s 			page 14


 433              		.loc 1 238 0
 434 002a 2046     		mov	r0, r4
 435 002c 02B0     		add	sp, sp, #8
 436              		.cfi_def_cfa_offset 8
 437              		@ sp needed
 438 002e 10BD     		pop	{r4, pc}
 439              		.cfi_endproc
 440              	.LFE67:
 441              		.size	select, .-select
 442              		.section	.text.send_cmd,"ax",%progbits
 443              		.align	2
 444              		.thumb
 445              		.thumb_func
 446              		.type	send_cmd, %function
 447              	send_cmd:
 448              	.LFB70:
 286:FatFs_Library/sdcard.c **** 
 287:FatFs_Library/sdcard.c **** /*-----------------------------------------------------------------------*/
 288:FatFs_Library/sdcard.c **** /* Send a command packet to the card                                     */
 289:FatFs_Library/sdcard.c **** /*-----------------------------------------------------------------------*/
 290:FatFs_Library/sdcard.c **** 
 291:FatFs_Library/sdcard.c **** static BYTE send_cmd(BYTE cmd,	DWORD arg)		/* Returns command response (bit7==1:Send failed)*/
 292:FatFs_Library/sdcard.c **** {
 449              		.loc 1 292 0
 450              		.cfi_startproc
 451              		@ args = 0, pretend = 0, frame = 8
 452              		@ frame_needed = 0, uses_anonymous_args = 0
 453              	.LVL48:
 454 0000 30B5     		push	{r4, r5, lr}
 455              		.cfi_def_cfa_offset 12
 456              		.cfi_offset 4, -12
 457              		.cfi_offset 5, -8
 458              		.cfi_offset 14, -4
 459 0002 83B0     		sub	sp, sp, #12
 460              		.cfi_def_cfa_offset 24
 461 0004 0446     		mov	r4, r0
 462 0006 0D46     		mov	r5, r1
 293:FatFs_Library/sdcard.c **** 	BYTE n, d, buf[6];
 294:FatFs_Library/sdcard.c **** 
 295:FatFs_Library/sdcard.c **** 
 296:FatFs_Library/sdcard.c **** 	if (cmd & 0x80) {	/* ACMD<n> is the command sequense of CMD55-CMD<n> */
 463              		.loc 1 296 0
 464 0008 10F0800F 		tst	r0, #128
 465 000c 07D0     		beq	.L35
 297:FatFs_Library/sdcard.c **** 		cmd &= 0x7F;
 466              		.loc 1 297 0
 467 000e 00F07F04 		and	r4, r0, #127
 468              	.LVL49:
 298:FatFs_Library/sdcard.c **** 		n = send_cmd(CMD55, 0);
 469              		.loc 1 298 0
 470 0012 0021     		movs	r1, #0
 471              	.LVL50:
 472 0014 3720     		movs	r0, #55
 473 0016 FFF7F3FF 		bl	send_cmd
 474              	.LVL51:
 299:FatFs_Library/sdcard.c **** 		if (n > 1) return n;
 475              		.loc 1 299 0
ARM GAS  C:\Users\Sava\AppData\Local\Temp\ccqwyLbK.s 			page 15


 476 001a 0128     		cmp	r0, #1
 477 001c 3FD8     		bhi	.L36
 478              	.LVL52:
 479              	.L35:
 300:FatFs_Library/sdcard.c **** 	}
 301:FatFs_Library/sdcard.c **** 
 302:FatFs_Library/sdcard.c **** 	/* Select the card and wait for ready except to stop multiple block read */
 303:FatFs_Library/sdcard.c **** 	if (cmd != CMD12) {
 480              		.loc 1 303 0
 481 001e 0C2C     		cmp	r4, #12
 482 0020 04D0     		beq	.L37
 304:FatFs_Library/sdcard.c **** 		deselect();
 483              		.loc 1 304 0
 484 0022 FFF7FEFF 		bl	deselect
 485              	.LVL53:
 305:FatFs_Library/sdcard.c **** 		if (!select()) return 0xFF;
 486              		.loc 1 305 0
 487 0026 FFF7FEFF 		bl	select
 488              	.LVL54:
 489 002a B8B3     		cbz	r0, .L43
 490              	.L37:
 306:FatFs_Library/sdcard.c **** 	}
 307:FatFs_Library/sdcard.c **** 
 308:FatFs_Library/sdcard.c **** 	/* Send a command packet */
 309:FatFs_Library/sdcard.c **** 	buf[0] = 0x40 | cmd;			/* Start + Command index */
 491              		.loc 1 309 0
 492 002c 44F04003 		orr	r3, r4, #64
 493 0030 8DF80030 		strb	r3, [sp]
 310:FatFs_Library/sdcard.c **** 	buf[1] = (BYTE)(arg >> 24);		/* Argument[31..24] */
 494              		.loc 1 310 0
 495 0034 2B0E     		lsrs	r3, r5, #24
 496 0036 8DF80130 		strb	r3, [sp, #1]
 311:FatFs_Library/sdcard.c **** 	buf[2] = (BYTE)(arg >> 16);		/* Argument[23..16] */
 497              		.loc 1 311 0
 498 003a C5F30743 		ubfx	r3, r5, #16, #8
 499 003e 8DF80230 		strb	r3, [sp, #2]
 312:FatFs_Library/sdcard.c **** 	buf[3] = (BYTE)(arg >> 8);		/* Argument[15..8] */
 500              		.loc 1 312 0
 501 0042 C5F30723 		ubfx	r3, r5, #8, #8
 502 0046 8DF80330 		strb	r3, [sp, #3]
 313:FatFs_Library/sdcard.c **** 	buf[4] = (BYTE)arg;				/* Argument[7..0] */
 503              		.loc 1 313 0
 504 004a 8DF80450 		strb	r5, [sp, #4]
 505              	.LVL55:
 314:FatFs_Library/sdcard.c **** 	n = 0x01;						/* Dummy CRC + Stop */
 315:FatFs_Library/sdcard.c **** 	if (cmd == CMD0) n = 0x95;		/* (valid CRC for CMD0(0)) */
 506              		.loc 1 315 0
 507 004e 0CB1     		cbz	r4, .L44
 314:FatFs_Library/sdcard.c **** 	n = 0x01;						/* Dummy CRC + Stop */
 508              		.loc 1 314 0
 509 0050 0123     		movs	r3, #1
 510 0052 00E0     		b	.L38
 511              	.L44:
 512              		.loc 1 315 0
 513 0054 9523     		movs	r3, #149
 514              	.L38:
 515              	.LVL56:
ARM GAS  C:\Users\Sava\AppData\Local\Temp\ccqwyLbK.s 			page 16


 316:FatFs_Library/sdcard.c **** 	if (cmd == CMD8) n = 0x87;		/* (valid CRC for CMD8(0x1AA)) */
 516              		.loc 1 316 0
 517 0056 082C     		cmp	r4, #8
 518 0058 00D1     		bne	.L39
 519 005a 8723     		movs	r3, #135
 520              	.LVL57:
 521              	.L39:
 317:FatFs_Library/sdcard.c **** 	buf[5] = n;
 522              		.loc 1 317 0
 523 005c 8DF80530 		strb	r3, [sp, #5]
 318:FatFs_Library/sdcard.c **** 	xmit_mmc(buf, 6);
 524              		.loc 1 318 0
 525 0060 0621     		movs	r1, #6
 526 0062 6846     		mov	r0, sp
 527 0064 FFF7FEFF 		bl	xmit_mmc
 528              	.LVL58:
 319:FatFs_Library/sdcard.c ****     CyDelayUs(M_DELAY_US); // <*> why?
 529              		.loc 1 319 0
 530 0068 0A20     		movs	r0, #10
 531 006a FFF7FEFF 		bl	CyDelayUs
 532              	.LVL59:
 320:FatFs_Library/sdcard.c **** 
 321:FatFs_Library/sdcard.c **** 	/* Receive command response */
 322:FatFs_Library/sdcard.c **** 	if (cmd == CMD12) rcvr_mmc(&d, 1);	/* Skip a stuff byte when stop reading */
 533              		.loc 1 322 0
 534 006e 0C2C     		cmp	r4, #12
 535 0070 04D1     		bne	.L40
 536              		.loc 1 322 0 is_stmt 0 discriminator 1
 537 0072 0121     		movs	r1, #1
 538 0074 0DF10700 		add	r0, sp, #7
 539 0078 FFF7FEFF 		bl	rcvr_mmc
 540              	.LVL60:
 541              	.L40:
 316:FatFs_Library/sdcard.c **** 	buf[5] = n;
 542              		.loc 1 316 0 is_stmt 1 discriminator 2
 543 007c 1424     		movs	r4, #20
 544              	.LVL61:
 545              	.L41:
 323:FatFs_Library/sdcard.c **** 	n = 20;								/* Wait for a valid response in timeout of 10 attempts */
 324:FatFs_Library/sdcard.c **** 	do
 325:FatFs_Library/sdcard.c ****     {
 326:FatFs_Library/sdcard.c **** 		rcvr_mmc(&d, 1);
 546              		.loc 1 326 0 discriminator 2
 547 007e 0121     		movs	r1, #1
 548 0080 0DF10700 		add	r0, sp, #7
 549 0084 FFF7FEFF 		bl	rcvr_mmc
 550              	.LVL62:
 327:FatFs_Library/sdcard.c ****     }
 328:FatFs_Library/sdcard.c **** 	while ((d & 0x80) && --n);
 551              		.loc 1 328 0 discriminator 2
 552 0088 9DF80700 		ldrb	r0, [sp, #7]	@ zero_extendqisi2
 553 008c 10F0800F 		tst	r0, #128
 554 0090 05D0     		beq	.L36
 555              		.loc 1 328 0 is_stmt 0 discriminator 1
 556 0092 631E     		subs	r3, r4, #1
 557              	.LVL63:
 558 0094 13F0FF04 		ands	r4, r3, #255
ARM GAS  C:\Users\Sava\AppData\Local\Temp\ccqwyLbK.s 			page 17


 559 0098 F1D1     		bne	.L41
 560 009a 00E0     		b	.L36
 561              	.LVL64:
 562              	.L43:
 305:FatFs_Library/sdcard.c **** 	}
 563              		.loc 1 305 0 is_stmt 1
 564 009c FF20     		movs	r0, #255
 565              	.LVL65:
 566              	.L36:
 329:FatFs_Library/sdcard.c **** 
 330:FatFs_Library/sdcard.c **** 	return d;			/* Return with the response value */
 331:FatFs_Library/sdcard.c **** }
 567              		.loc 1 331 0
 568 009e 03B0     		add	sp, sp, #12
 569              		.cfi_def_cfa_offset 12
 570              		@ sp needed
 571 00a0 30BD     		pop	{r4, r5, pc}
 572              		.cfi_endproc
 573              	.LFE70:
 574              		.size	send_cmd, .-send_cmd
 575 00a2 00BF     		.section	.text.disk_status,"ax",%progbits
 576              		.align	2
 577              		.global	disk_status
 578              		.thumb
 579              		.thumb_func
 580              		.type	disk_status, %function
 581              	disk_status:
 582              	.LFB71:
 332:FatFs_Library/sdcard.c **** 
 333:FatFs_Library/sdcard.c **** /*--------------------------------------------------------------------------
 334:FatFs_Library/sdcard.c **** 
 335:FatFs_Library/sdcard.c ****    Public Functions
 336:FatFs_Library/sdcard.c **** 
 337:FatFs_Library/sdcard.c **** ---------------------------------------------------------------------------*/
 338:FatFs_Library/sdcard.c **** 
 339:FatFs_Library/sdcard.c **** /*-----------------------------------------------------------------------*/
 340:FatFs_Library/sdcard.c **** /* Get Disk Status                                                       */
 341:FatFs_Library/sdcard.c **** /*-----------------------------------------------------------------------*/
 342:FatFs_Library/sdcard.c **** 
 343:FatFs_Library/sdcard.c **** DSTATUS disk_status(BYTE drv) /* Drive number (always 0) */
 344:FatFs_Library/sdcard.c **** {
 583              		.loc 1 344 0
 584              		.cfi_startproc
 585              		@ args = 0, pretend = 0, frame = 0
 586              		@ frame_needed = 0, uses_anonymous_args = 0
 587              		@ link register save eliminated.
 588              	.LVL66:
 345:FatFs_Library/sdcard.c **** 	if (drv) return STA_NOINIT;
 589              		.loc 1 345 0
 590 0000 10B9     		cbnz	r0, .L49
 346:FatFs_Library/sdcard.c **** 
 347:FatFs_Library/sdcard.c **** 	return Stat;
 591              		.loc 1 347 0
 592 0002 024B     		ldr	r3, .L50
 593 0004 1878     		ldrb	r0, [r3]	@ zero_extendqisi2
 594              	.LVL67:
 595 0006 7047     		bx	lr
ARM GAS  C:\Users\Sava\AppData\Local\Temp\ccqwyLbK.s 			page 18


 596              	.LVL68:
 597              	.L49:
 345:FatFs_Library/sdcard.c **** 	if (drv) return STA_NOINIT;
 598              		.loc 1 345 0
 599 0008 0120     		movs	r0, #1
 600              	.LVL69:
 348:FatFs_Library/sdcard.c **** }
 601              		.loc 1 348 0
 602 000a 7047     		bx	lr
 603              	.L51:
 604              		.align	2
 605              	.L50:
 606 000c 00000000 		.word	.LANCHOR0
 607              		.cfi_endproc
 608              	.LFE71:
 609              		.size	disk_status, .-disk_status
 610              		.section	.text.disk_initialize,"ax",%progbits
 611              		.align	2
 612              		.global	disk_initialize
 613              		.thumb
 614              		.thumb_func
 615              		.type	disk_initialize, %function
 616              	disk_initialize:
 617              	.LFB72:
 349:FatFs_Library/sdcard.c **** 
 350:FatFs_Library/sdcard.c **** /*-----------------------------------------------------------------------*/
 351:FatFs_Library/sdcard.c **** /* Initialize Disk Drive                                                 */
 352:FatFs_Library/sdcard.c **** /*-----------------------------------------------------------------------*/
 353:FatFs_Library/sdcard.c **** 
 354:FatFs_Library/sdcard.c **** DSTATUS disk_initialize(BYTE drv) /* Physical drive nmuber (0) */
 355:FatFs_Library/sdcard.c **** {
 618              		.loc 1 355 0
 619              		.cfi_startproc
 620              		@ args = 0, pretend = 0, frame = 8
 621              		@ frame_needed = 0, uses_anonymous_args = 0
 622              	.LVL70:
 356:FatFs_Library/sdcard.c **** 	BYTE n, ty, cmd, buf[4];
 357:FatFs_Library/sdcard.c **** 	UINT tmr;
 358:FatFs_Library/sdcard.c **** 	DSTATUS s;
 359:FatFs_Library/sdcard.c **** 
 360:FatFs_Library/sdcard.c **** 	if (drv) return RES_NOTRDY;
 623              		.loc 1 360 0
 624 0000 0028     		cmp	r0, #0
 625 0002 40F08780 		bne	.L65
 355:FatFs_Library/sdcard.c **** 	BYTE n, ty, cmd, buf[4];
 626              		.loc 1 355 0
 627 0006 70B5     		push	{r4, r5, r6, lr}
 628              		.cfi_def_cfa_offset 16
 629              		.cfi_offset 4, -16
 630              		.cfi_offset 5, -12
 631              		.cfi_offset 6, -8
 632              		.cfi_offset 14, -4
 633 0008 82B0     		sub	sp, sp, #8
 634              		.cfi_def_cfa_offset 24
 361:FatFs_Library/sdcard.c **** 
 362:FatFs_Library/sdcard.c **** 	dly_us(10000);			/* 10ms */
 635              		.loc 1 362 0
ARM GAS  C:\Users\Sava\AppData\Local\Temp\ccqwyLbK.s 			page 19


 636 000a 42F21070 		movw	r0, #10000
 637              	.LVL71:
 638 000e FFF7FEFF 		bl	CyDelayUs
 639              	.LVL72:
 363:FatFs_Library/sdcard.c **** 
 364:FatFs_Library/sdcard.c **** 	for (n = 10; n; n--) rcvr_mmc(buf, 1);	/* Apply 80 dummy clocks and the card gets ready to receive
 640              		.loc 1 364 0
 641 0012 0A24     		movs	r4, #10
 642 0014 05E0     		b	.L54
 643              	.LVL73:
 644              	.L55:
 645              		.loc 1 364 0 is_stmt 0 discriminator 3
 646 0016 0121     		movs	r1, #1
 647 0018 01A8     		add	r0, sp, #4
 648 001a FFF7FEFF 		bl	rcvr_mmc
 649              	.LVL74:
 650 001e 013C     		subs	r4, r4, #1
 651              	.LVL75:
 652 0020 E4B2     		uxtb	r4, r4
 653              	.LVL76:
 654              	.L54:
 655              		.loc 1 364 0 discriminator 1
 656 0022 002C     		cmp	r4, #0
 657 0024 F7D1     		bne	.L55
 658              	.LVL77:
 365:FatFs_Library/sdcard.c **** 
 366:FatFs_Library/sdcard.c **** 	ty = 0;
 367:FatFs_Library/sdcard.c **** 	if (send_cmd(CMD0, 0) == 1) {			/* Enter Idle state */
 659              		.loc 1 367 0 is_stmt 1
 660 0026 0021     		movs	r1, #0
 661 0028 0846     		mov	r0, r1
 662 002a FFF7FEFF 		bl	send_cmd
 663              	.LVL78:
 664 002e 0128     		cmp	r0, #1
 665 0030 58D1     		bne	.L66
 368:FatFs_Library/sdcard.c **** 		if (send_cmd(CMD8, 0x1AA) == 1) {	/* SDv2? */
 666              		.loc 1 368 0
 667 0032 4FF4D571 		mov	r1, #426
 668 0036 0820     		movs	r0, #8
 669 0038 FFF7FEFF 		bl	send_cmd
 670              	.LVL79:
 671 003c 0128     		cmp	r0, #1
 672 003e 2FD1     		bne	.L57
 369:FatFs_Library/sdcard.c **** 			rcvr_mmc(buf, 4);							/* Get trailing return value of R7 resp */
 673              		.loc 1 369 0
 674 0040 0421     		movs	r1, #4
 675 0042 0DEB0100 		add	r0, sp, r1
 676 0046 FFF7FEFF 		bl	rcvr_mmc
 677              	.LVL80:
 370:FatFs_Library/sdcard.c **** 			if (buf[2] == 0x01 && buf[3] == 0xAA) {		/* The card can work at vdd range of 2.7-3.6V */
 678              		.loc 1 370 0
 679 004a 9DF80630 		ldrb	r3, [sp, #6]	@ zero_extendqisi2
 680 004e 012B     		cmp	r3, #1
 681 0050 4AD1     		bne	.L67
 682              		.loc 1 370 0 is_stmt 0 discriminator 1
 683 0052 9DF80730 		ldrb	r3, [sp, #7]	@ zero_extendqisi2
 684 0056 AA2B     		cmp	r3, #170
ARM GAS  C:\Users\Sava\AppData\Local\Temp\ccqwyLbK.s 			page 20


 685 0058 0CD0     		beq	.L68
 686 005a 50E0     		b	.L56
 687              	.LVL81:
 688              	.L60:
 371:FatFs_Library/sdcard.c **** 				for (tmr = 1000; tmr; tmr--) {			/* Wait for leaving idle state (ACMD41 with HCS bit) */
 372:FatFs_Library/sdcard.c **** 					if (send_cmd(ACMD41, 1UL << 30) == 0) break;
 689              		.loc 1 372 0 is_stmt 1
 690 005c 4FF08041 		mov	r1, #1073741824
 691 0060 A920     		movs	r0, #169
 692 0062 FFF7FEFF 		bl	send_cmd
 693              	.LVL82:
 694 0066 48B1     		cbz	r0, .L59
 373:FatFs_Library/sdcard.c **** 					dly_us(1000);
 695              		.loc 1 373 0 discriminator 2
 696 0068 4FF47A70 		mov	r0, #1000
 697 006c FFF7FEFF 		bl	CyDelayUs
 698              	.LVL83:
 371:FatFs_Library/sdcard.c **** 				for (tmr = 1000; tmr; tmr--) {			/* Wait for leaving idle state (ACMD41 with HCS bit) */
 699              		.loc 1 371 0 discriminator 2
 700 0070 013C     		subs	r4, r4, #1
 701              	.LVL84:
 702 0072 01E0     		b	.L58
 703              	.LVL85:
 704              	.L68:
 705 0074 4FF47A74 		mov	r4, #1000
 706              	.LVL86:
 707              	.L58:
 371:FatFs_Library/sdcard.c **** 				for (tmr = 1000; tmr; tmr--) {			/* Wait for leaving idle state (ACMD41 with HCS bit) */
 708              		.loc 1 371 0 is_stmt 0 discriminator 1
 709 0078 002C     		cmp	r4, #0
 710 007a EFD1     		bne	.L60
 711              	.L59:
 374:FatFs_Library/sdcard.c **** 				}
 375:FatFs_Library/sdcard.c **** 				if (tmr && send_cmd(CMD58, 0) == 0) {	/* Check CCS bit in the OCR */
 712              		.loc 1 375 0 is_stmt 1
 713 007c B4B3     		cbz	r4, .L69
 714              		.loc 1 375 0 is_stmt 0 discriminator 1
 715 007e 0021     		movs	r1, #0
 716 0080 3A20     		movs	r0, #58
 717 0082 FFF7FEFF 		bl	send_cmd
 718              	.LVL87:
 719 0086 98BB     		cbnz	r0, .L70
 376:FatFs_Library/sdcard.c **** 					rcvr_mmc(buf, 4);
 720              		.loc 1 376 0 is_stmt 1
 721 0088 0421     		movs	r1, #4
 722 008a 0DEB0100 		add	r0, sp, r1
 723 008e FFF7FEFF 		bl	rcvr_mmc
 724              	.LVL88:
 377:FatFs_Library/sdcard.c **** 					ty = (buf[0] & 0x40) ? CT_SD2 | CT_BLOCK : CT_SD2;	/* SDv2 */
 725              		.loc 1 377 0
 726 0092 9DF80430 		ldrb	r3, [sp, #4]	@ zero_extendqisi2
 727 0096 13F0400F 		tst	r3, #64
 728 009a 2BD0     		beq	.L71
 729 009c 0C24     		movs	r4, #12
 730              	.LVL89:
 731 009e 2EE0     		b	.L56
 732              	.LVL90:
ARM GAS  C:\Users\Sava\AppData\Local\Temp\ccqwyLbK.s 			page 21


 733              	.L57:
 378:FatFs_Library/sdcard.c **** 				}
 379:FatFs_Library/sdcard.c **** 			}
 380:FatFs_Library/sdcard.c **** 		} else {							/* SDv1 or MMCv3 */
 381:FatFs_Library/sdcard.c **** 			if (send_cmd(ACMD41, 0) <= 1) 	{
 734              		.loc 1 381 0
 735 00a0 0021     		movs	r1, #0
 736 00a2 A920     		movs	r0, #169
 737 00a4 FFF7FEFF 		bl	send_cmd
 738              	.LVL91:
 739 00a8 0128     		cmp	r0, #1
 740 00aa 02D8     		bhi	.L72
 382:FatFs_Library/sdcard.c **** 				ty = CT_SD1; cmd = ACMD41;	/* SDv1 */
 741              		.loc 1 382 0
 742 00ac A926     		movs	r6, #169
 743 00ae 0224     		movs	r4, #2
 744              	.LVL92:
 745 00b0 01E0     		b	.L61
 746              	.LVL93:
 747              	.L72:
 383:FatFs_Library/sdcard.c **** 			} else {
 384:FatFs_Library/sdcard.c **** 				ty = CT_MMC; cmd = CMD1;	/* MMCv3 */
 748              		.loc 1 384 0
 749 00b2 0126     		movs	r6, #1
 750 00b4 3446     		mov	r4, r6
 751              	.LVL94:
 752              	.L61:
 385:FatFs_Library/sdcard.c **** 			}
 386:FatFs_Library/sdcard.c **** 			for (tmr = 1000; tmr; tmr--) {			/* Wait for leaving idle state */
 753              		.loc 1 386 0
 754 00b6 4FF47A75 		mov	r5, #1000
 755 00ba 09E0     		b	.L62
 756              	.LVL95:
 757              	.L64:
 387:FatFs_Library/sdcard.c **** 				if (send_cmd(cmd, 0) == 0) break;
 758              		.loc 1 387 0
 759 00bc 0021     		movs	r1, #0
 760 00be 3046     		mov	r0, r6
 761 00c0 FFF7FEFF 		bl	send_cmd
 762              	.LVL96:
 763 00c4 30B1     		cbz	r0, .L63
 388:FatFs_Library/sdcard.c **** 				dly_us(1000);
 764              		.loc 1 388 0 discriminator 2
 765 00c6 4FF47A70 		mov	r0, #1000
 766 00ca FFF7FEFF 		bl	CyDelayUs
 767              	.LVL97:
 386:FatFs_Library/sdcard.c **** 				if (send_cmd(cmd, 0) == 0) break;
 768              		.loc 1 386 0 discriminator 2
 769 00ce 013D     		subs	r5, r5, #1
 770              	.LVL98:
 771              	.L62:
 386:FatFs_Library/sdcard.c **** 				if (send_cmd(cmd, 0) == 0) break;
 772              		.loc 1 386 0 is_stmt 0 discriminator 1
 773 00d0 002D     		cmp	r5, #0
 774 00d2 F3D1     		bne	.L64
 775              	.L63:
 389:FatFs_Library/sdcard.c **** 			}
ARM GAS  C:\Users\Sava\AppData\Local\Temp\ccqwyLbK.s 			page 22


 390:FatFs_Library/sdcard.c **** 			if (!tmr || send_cmd(CMD16, 512) != 0)	/* Set R/W block length to 512 */
 776              		.loc 1 390 0 is_stmt 1
 777 00d4 85B1     		cbz	r5, .L73
 778              		.loc 1 390 0 is_stmt 0 discriminator 1
 779 00d6 4FF40071 		mov	r1, #512
 780 00da 1020     		movs	r0, #16
 781 00dc FFF7FEFF 		bl	send_cmd
 782              	.LVL99:
 783 00e0 60B9     		cbnz	r0, .L74
 784 00e2 0CE0     		b	.L56
 785              	.LVL100:
 786              	.L66:
 366:FatFs_Library/sdcard.c **** 	if (send_cmd(CMD0, 0) == 1) {			/* Enter Idle state */
 787              		.loc 1 366 0 is_stmt 1
 788 00e4 0024     		movs	r4, #0
 789              	.LVL101:
 790 00e6 0AE0     		b	.L56
 791              	.LVL102:
 792              	.L67:
 793 00e8 0024     		movs	r4, #0
 794              	.LVL103:
 795 00ea 08E0     		b	.L56
 796              	.LVL104:
 797              	.L69:
 798 00ec 0024     		movs	r4, #0
 799              	.LVL105:
 800 00ee 06E0     		b	.L56
 801              	.LVL106:
 802              	.L70:
 803 00f0 0024     		movs	r4, #0
 804              	.LVL107:
 805 00f2 04E0     		b	.L56
 806              	.LVL108:
 807              	.L71:
 377:FatFs_Library/sdcard.c **** 				}
 808              		.loc 1 377 0
 809 00f4 0424     		movs	r4, #4
 810              	.LVL109:
 811 00f6 02E0     		b	.L56
 812              	.LVL110:
 813              	.L73:
 391:FatFs_Library/sdcard.c **** 				ty = 0;
 814              		.loc 1 391 0
 815 00f8 0024     		movs	r4, #0
 816              	.LVL111:
 817 00fa 00E0     		b	.L56
 818              	.LVL112:
 819              	.L74:
 820 00fc 0024     		movs	r4, #0
 821              	.LVL113:
 822              	.L56:
 392:FatFs_Library/sdcard.c **** 		}
 393:FatFs_Library/sdcard.c **** 	}
 394:FatFs_Library/sdcard.c **** 	CardType = ty;
 823              		.loc 1 394 0
 824 00fe 074B     		ldr	r3, .L77
 825 0100 1C70     		strb	r4, [r3]
ARM GAS  C:\Users\Sava\AppData\Local\Temp\ccqwyLbK.s 			page 23


 395:FatFs_Library/sdcard.c **** 	s = ty ? 0 : STA_NOINIT;
 826              		.loc 1 395 0
 827 0102 B4FA84F4 		clz	r4, r4
 828              	.LVL114:
 829 0106 6409     		lsrs	r4, r4, #5
 830              	.LVL115:
 396:FatFs_Library/sdcard.c **** 	Stat = s;
 831              		.loc 1 396 0
 832 0108 054B     		ldr	r3, .L77+4
 833 010a 1C70     		strb	r4, [r3]
 397:FatFs_Library/sdcard.c **** 
 398:FatFs_Library/sdcard.c **** 	deselect();
 834              		.loc 1 398 0
 835 010c FFF7FEFF 		bl	deselect
 836              	.LVL116:
 399:FatFs_Library/sdcard.c **** 
 400:FatFs_Library/sdcard.c **** 	return s;
 837              		.loc 1 400 0
 838 0110 2046     		mov	r0, r4
 839 0112 01E0     		b	.L53
 840              	.LVL117:
 841              	.L65:
 842              		.cfi_def_cfa_offset 0
 843              		.cfi_restore 4
 844              		.cfi_restore 5
 845              		.cfi_restore 6
 846              		.cfi_restore 14
 360:FatFs_Library/sdcard.c **** 
 847              		.loc 1 360 0
 848 0114 0320     		movs	r0, #3
 849              	.LVL118:
 850 0116 7047     		bx	lr
 851              	.LVL119:
 852              	.L53:
 853              		.cfi_def_cfa_offset 24
 854              		.cfi_offset 4, -16
 855              		.cfi_offset 5, -12
 856              		.cfi_offset 6, -8
 857              		.cfi_offset 14, -4
 401:FatFs_Library/sdcard.c **** }
 858              		.loc 1 401 0
 859 0118 02B0     		add	sp, sp, #8
 860              		.cfi_def_cfa_offset 16
 861              		@ sp needed
 862 011a 70BD     		pop	{r4, r5, r6, pc}
 863              	.LVL120:
 864              	.L78:
 865              		.align	2
 866              	.L77:
 867 011c 00000000 		.word	.LANCHOR1
 868 0120 00000000 		.word	.LANCHOR0
 869              		.cfi_endproc
 870              	.LFE72:
 871              		.size	disk_initialize, .-disk_initialize
 872              		.section	.text.disk_read,"ax",%progbits
 873              		.align	2
 874              		.global	disk_read
ARM GAS  C:\Users\Sava\AppData\Local\Temp\ccqwyLbK.s 			page 24


 875              		.thumb
 876              		.thumb_func
 877              		.type	disk_read, %function
 878              	disk_read:
 879              	.LFB73:
 402:FatFs_Library/sdcard.c **** 
 403:FatFs_Library/sdcard.c **** /*-----------------------------------------------------------------------*/
 404:FatFs_Library/sdcard.c **** /* Read Sector(s)                                                        */
 405:FatFs_Library/sdcard.c **** /*-----------------------------------------------------------------------*/
 406:FatFs_Library/sdcard.c **** 
 407:FatFs_Library/sdcard.c **** DRESULT disk_read(BYTE drv,	BYTE *buff,	DWORD sector, UINT count) /* Physical drive nmuber (0) */
 408:FatFs_Library/sdcard.c **** {
 880              		.loc 1 408 0
 881              		.cfi_startproc
 882              		@ args = 0, pretend = 0, frame = 0
 883              		@ frame_needed = 0, uses_anonymous_args = 0
 884              	.LVL121:
 885 0000 F8B5     		push	{r3, r4, r5, r6, r7, lr}
 886              		.cfi_def_cfa_offset 24
 887              		.cfi_offset 3, -24
 888              		.cfi_offset 4, -20
 889              		.cfi_offset 5, -16
 890              		.cfi_offset 6, -12
 891              		.cfi_offset 7, -8
 892              		.cfi_offset 14, -4
 893 0002 0D46     		mov	r5, r1
 894 0004 1646     		mov	r6, r2
 895 0006 1C46     		mov	r4, r3
 409:FatFs_Library/sdcard.c **** 	BYTE cmd;
 410:FatFs_Library/sdcard.c **** 
 411:FatFs_Library/sdcard.c **** 	if (disk_status(drv) & STA_NOINIT) return RES_NOTRDY;
 896              		.loc 1 411 0
 897 0008 FFF7FEFF 		bl	disk_status
 898              	.LVL122:
 899 000c 10F0010F 		tst	r0, #1
 900 0010 25D1     		bne	.L86
 412:FatFs_Library/sdcard.c **** 	if (!(CardType & CT_BLOCK)) sector *= 512;	/* Convert LBA to byte address if needed */
 901              		.loc 1 412 0
 902 0012 144B     		ldr	r3, .L89
 903 0014 1B78     		ldrb	r3, [r3]	@ zero_extendqisi2
 904 0016 13F0080F 		tst	r3, #8
 905 001a 00D1     		bne	.L81
 906              		.loc 1 412 0 is_stmt 0 discriminator 1
 907 001c 7602     		lsls	r6, r6, #9
 908              	.LVL123:
 909              	.L81:
 413:FatFs_Library/sdcard.c **** 
 414:FatFs_Library/sdcard.c **** 	cmd = count > 1 ? CMD18 : CMD17;			/*  READ_MULTIPLE_BLOCK : READ_SINGLE_BLOCK */
 910              		.loc 1 414 0 is_stmt 1
 911 001e 012C     		cmp	r4, #1
 912 0020 01D9     		bls	.L87
 913 0022 1227     		movs	r7, #18
 914 0024 00E0     		b	.L82
 915              	.L87:
 916 0026 1127     		movs	r7, #17
 917              	.L82:
 918              	.LVL124:
ARM GAS  C:\Users\Sava\AppData\Local\Temp\ccqwyLbK.s 			page 25


 415:FatFs_Library/sdcard.c **** 	if (send_cmd(cmd, sector) == 0) {
 919              		.loc 1 415 0 discriminator 4
 920 0028 3146     		mov	r1, r6
 921 002a 3846     		mov	r0, r7
 922 002c FFF7FEFF 		bl	send_cmd
 923              	.LVL125:
 924 0030 78B9     		cbnz	r0, .L83
 925              	.L85:
 416:FatFs_Library/sdcard.c **** 		do {
 417:FatFs_Library/sdcard.c **** 			if (!rcvr_datablock(buff, 512)) break;
 926              		.loc 1 417 0
 927 0032 4FF40071 		mov	r1, #512
 928 0036 2846     		mov	r0, r5
 929 0038 FFF7FEFF 		bl	rcvr_datablock
 930              	.LVL126:
 931 003c 18B1     		cbz	r0, .L84
 418:FatFs_Library/sdcard.c **** 			buff += 512;
 932              		.loc 1 418 0
 933 003e 05F50075 		add	r5, r5, #512
 934              	.LVL127:
 419:FatFs_Library/sdcard.c **** 		} while (--count);
 935              		.loc 1 419 0
 936 0042 013C     		subs	r4, r4, #1
 937              	.LVL128:
 938 0044 F5D1     		bne	.L85
 939              	.L84:
 420:FatFs_Library/sdcard.c **** 		if (cmd == CMD18) send_cmd(CMD12, 0);	/* STOP_TRANSMISSION */
 940              		.loc 1 420 0
 941 0046 122F     		cmp	r7, #18
 942 0048 03D1     		bne	.L83
 943              		.loc 1 420 0 is_stmt 0 discriminator 1
 944 004a 0021     		movs	r1, #0
 945 004c 0C20     		movs	r0, #12
 946 004e FFF7FEFF 		bl	send_cmd
 947              	.LVL129:
 948              	.L83:
 421:FatFs_Library/sdcard.c **** 	}
 422:FatFs_Library/sdcard.c **** 	deselect();
 949              		.loc 1 422 0 is_stmt 1
 950 0052 FFF7FEFF 		bl	deselect
 951              	.LVL130:
 423:FatFs_Library/sdcard.c **** 
 424:FatFs_Library/sdcard.c **** 	return count ? RES_ERROR : RES_OK;
 952              		.loc 1 424 0
 953 0056 201C     		adds	r0, r4, #0
 954 0058 18BF     		it	ne
 955 005a 0120     		movne	r0, #1
 956 005c F8BD     		pop	{r3, r4, r5, r6, r7, pc}
 957              	.LVL131:
 958              	.L86:
 411:FatFs_Library/sdcard.c **** 	if (!(CardType & CT_BLOCK)) sector *= 512;	/* Convert LBA to byte address if needed */
 959              		.loc 1 411 0
 960 005e 0320     		movs	r0, #3
 425:FatFs_Library/sdcard.c **** }
 961              		.loc 1 425 0
 962 0060 F8BD     		pop	{r3, r4, r5, r6, r7, pc}
 963              	.LVL132:
ARM GAS  C:\Users\Sava\AppData\Local\Temp\ccqwyLbK.s 			page 26


 964              	.L90:
 965 0062 00BF     		.align	2
 966              	.L89:
 967 0064 00000000 		.word	.LANCHOR1
 968              		.cfi_endproc
 969              	.LFE73:
 970              		.size	disk_read, .-disk_read
 971              		.section	.text.disk_write,"ax",%progbits
 972              		.align	2
 973              		.global	disk_write
 974              		.thumb
 975              		.thumb_func
 976              		.type	disk_write, %function
 977              	disk_write:
 978              	.LFB74:
 426:FatFs_Library/sdcard.c **** 
 427:FatFs_Library/sdcard.c **** /*-----------------------------------------------------------------------*/
 428:FatFs_Library/sdcard.c **** /* Write Sector(s)                                                       */
 429:FatFs_Library/sdcard.c **** /*-----------------------------------------------------------------------*/
 430:FatFs_Library/sdcard.c **** 
 431:FatFs_Library/sdcard.c **** DRESULT disk_write (
 432:FatFs_Library/sdcard.c **** 	BYTE drv,			/* Physical drive nmuber (0) */
 433:FatFs_Library/sdcard.c **** 	const BYTE *buff,	/* Pointer to the data to be written */
 434:FatFs_Library/sdcard.c **** 	DWORD sector,		/* Start sector number (LBA) */
 435:FatFs_Library/sdcard.c **** 	UINT count			/* Sector count (1..128) */
 436:FatFs_Library/sdcard.c **** )
 437:FatFs_Library/sdcard.c **** {
 979              		.loc 1 437 0
 980              		.cfi_startproc
 981              		@ args = 0, pretend = 0, frame = 0
 982              		@ frame_needed = 0, uses_anonymous_args = 0
 983              	.LVL133:
 984 0000 70B5     		push	{r4, r5, r6, lr}
 985              		.cfi_def_cfa_offset 16
 986              		.cfi_offset 4, -16
 987              		.cfi_offset 5, -12
 988              		.cfi_offset 6, -8
 989              		.cfi_offset 14, -4
 990 0002 0D46     		mov	r5, r1
 991 0004 1646     		mov	r6, r2
 992 0006 1C46     		mov	r4, r3
 438:FatFs_Library/sdcard.c **** 	if (disk_status(drv) & STA_NOINIT) return RES_NOTRDY;
 993              		.loc 1 438 0
 994 0008 FFF7FEFF 		bl	disk_status
 995              	.LVL134:
 996 000c 10F0010F 		tst	r0, #1
 997 0010 36D1     		bne	.L99
 439:FatFs_Library/sdcard.c **** 	if (!(CardType & CT_BLOCK)) sector *= 512;	/* Convert LBA to byte address if needed */
 998              		.loc 1 439 0
 999 0012 1C4B     		ldr	r3, .L103
 1000 0014 1B78     		ldrb	r3, [r3]	@ zero_extendqisi2
 1001 0016 13F0080F 		tst	r3, #8
 1002 001a 00D1     		bne	.L93
 1003              		.loc 1 439 0 is_stmt 0 discriminator 1
 1004 001c 7602     		lsls	r6, r6, #9
 1005              	.LVL135:
 1006              	.L93:
ARM GAS  C:\Users\Sava\AppData\Local\Temp\ccqwyLbK.s 			page 27


 440:FatFs_Library/sdcard.c **** 
 441:FatFs_Library/sdcard.c **** 	if (count == 1) {	/* Single block write */
 1007              		.loc 1 441 0 is_stmt 1
 1008 001e 012C     		cmp	r4, #1
 1009 0020 0AD1     		bne	.L94
 442:FatFs_Library/sdcard.c **** 		if ((send_cmd(CMD24, sector) == 0)	/* WRITE_BLOCK */
 1010              		.loc 1 442 0
 1011 0022 3146     		mov	r1, r6
 1012 0024 1820     		movs	r0, #24
 1013 0026 FFF7FEFF 		bl	send_cmd
 1014              	.LVL136:
 1015 002a 18BB     		cbnz	r0, .L95
 443:FatFs_Library/sdcard.c **** 			&& xmit_datablock(buff, 0xFE))
 1016              		.loc 1 443 0
 1017 002c FE21     		movs	r1, #254
 1018 002e 2846     		mov	r0, r5
 1019 0030 FFF7FEFF 		bl	xmit_datablock
 1020              	.LVL137:
 1021 0034 D8B9     		cbnz	r0, .L100
 1022 0036 1DE0     		b	.L95
 1023              	.L94:
 444:FatFs_Library/sdcard.c **** 			count = 0;
 445:FatFs_Library/sdcard.c **** 	}
 446:FatFs_Library/sdcard.c **** 	else {				/* Multiple block write */
 447:FatFs_Library/sdcard.c **** 		if (CardType & CT_SDC) send_cmd(ACMD23, count);
 1024              		.loc 1 447 0
 1025 0038 13F0060F 		tst	r3, #6
 1026 003c 03D0     		beq	.L96
 1027              		.loc 1 447 0 is_stmt 0 discriminator 1
 1028 003e 2146     		mov	r1, r4
 1029 0040 9720     		movs	r0, #151
 1030 0042 FFF7FEFF 		bl	send_cmd
 1031              	.LVL138:
 1032              	.L96:
 448:FatFs_Library/sdcard.c **** 		if (send_cmd(CMD25, sector) == 0) {	/* WRITE_MULTIPLE_BLOCK */
 1033              		.loc 1 448 0 is_stmt 1
 1034 0046 3146     		mov	r1, r6
 1035 0048 1920     		movs	r0, #25
 1036 004a FFF7FEFF 		bl	send_cmd
 1037              	.LVL139:
 1038 004e 88B9     		cbnz	r0, .L95
 1039              	.L98:
 449:FatFs_Library/sdcard.c **** 			do {
 450:FatFs_Library/sdcard.c **** 				if (!xmit_datablock(buff, 0xFC)) break;
 1040              		.loc 1 450 0
 1041 0050 FC21     		movs	r1, #252
 1042 0052 2846     		mov	r0, r5
 1043 0054 FFF7FEFF 		bl	xmit_datablock
 1044              	.LVL140:
 1045 0058 18B1     		cbz	r0, .L97
 451:FatFs_Library/sdcard.c **** 				buff += 512;
 1046              		.loc 1 451 0
 1047 005a 05F50075 		add	r5, r5, #512
 1048              	.LVL141:
 452:FatFs_Library/sdcard.c **** 			} while (--count);
 1049              		.loc 1 452 0
 1050 005e 013C     		subs	r4, r4, #1
ARM GAS  C:\Users\Sava\AppData\Local\Temp\ccqwyLbK.s 			page 28


 1051              	.LVL142:
 1052 0060 F6D1     		bne	.L98
 1053              	.L97:
 453:FatFs_Library/sdcard.c **** 			if (!xmit_datablock(0, 0xFD))	/* STOP_TRAN token */
 1054              		.loc 1 453 0
 1055 0062 FD21     		movs	r1, #253
 1056 0064 0020     		movs	r0, #0
 1057 0066 FFF7FEFF 		bl	xmit_datablock
 1058              	.LVL143:
 1059 006a 10B1     		cbz	r0, .L101
 1060 006c 02E0     		b	.L95
 1061              	.L100:
 444:FatFs_Library/sdcard.c **** 	}
 1062              		.loc 1 444 0
 1063 006e 0024     		movs	r4, #0
 1064              	.LVL144:
 1065 0070 00E0     		b	.L95
 1066              	.LVL145:
 1067              	.L101:
 454:FatFs_Library/sdcard.c **** 				count = 1;
 1068              		.loc 1 454 0
 1069 0072 0124     		movs	r4, #1
 1070              	.LVL146:
 1071              	.L95:
 455:FatFs_Library/sdcard.c **** 		}
 456:FatFs_Library/sdcard.c **** 	}
 457:FatFs_Library/sdcard.c **** 	deselect();
 1072              		.loc 1 457 0
 1073 0074 FFF7FEFF 		bl	deselect
 1074              	.LVL147:
 458:FatFs_Library/sdcard.c **** 
 459:FatFs_Library/sdcard.c **** 	return count ? RES_ERROR : RES_OK;
 1075              		.loc 1 459 0
 1076 0078 201C     		adds	r0, r4, #0
 1077 007a 18BF     		it	ne
 1078 007c 0120     		movne	r0, #1
 1079 007e 70BD     		pop	{r4, r5, r6, pc}
 1080              	.LVL148:
 1081              	.L99:
 438:FatFs_Library/sdcard.c **** 	if (!(CardType & CT_BLOCK)) sector *= 512;	/* Convert LBA to byte address if needed */
 1082              		.loc 1 438 0
 1083 0080 0320     		movs	r0, #3
 460:FatFs_Library/sdcard.c **** }
 1084              		.loc 1 460 0
 1085 0082 70BD     		pop	{r4, r5, r6, pc}
 1086              	.LVL149:
 1087              	.L104:
 1088              		.align	2
 1089              	.L103:
 1090 0084 00000000 		.word	.LANCHOR1
 1091              		.cfi_endproc
 1092              	.LFE74:
 1093              		.size	disk_write, .-disk_write
 1094              		.section	.text.disk_ioctl,"ax",%progbits
 1095              		.align	2
 1096              		.global	disk_ioctl
 1097              		.thumb
ARM GAS  C:\Users\Sava\AppData\Local\Temp\ccqwyLbK.s 			page 29


 1098              		.thumb_func
 1099              		.type	disk_ioctl, %function
 1100              	disk_ioctl:
 1101              	.LFB75:
 461:FatFs_Library/sdcard.c **** 
 462:FatFs_Library/sdcard.c **** 
 463:FatFs_Library/sdcard.c **** /*-----------------------------------------------------------------------*/
 464:FatFs_Library/sdcard.c **** /* Miscellaneous Functions                                               */
 465:FatFs_Library/sdcard.c **** /*-----------------------------------------------------------------------*/
 466:FatFs_Library/sdcard.c **** 
 467:FatFs_Library/sdcard.c **** DRESULT disk_ioctl (
 468:FatFs_Library/sdcard.c **** 	BYTE drv,		/* Physical drive nmuber (0) */
 469:FatFs_Library/sdcard.c **** 	BYTE ctrl,		/* Control code */
 470:FatFs_Library/sdcard.c **** 	void *buff		/* Buffer to send/receive control data */
 471:FatFs_Library/sdcard.c **** )
 472:FatFs_Library/sdcard.c **** {
 1102              		.loc 1 472 0
 1103              		.cfi_startproc
 1104              		@ args = 0, pretend = 0, frame = 16
 1105              		@ frame_needed = 0, uses_anonymous_args = 0
 1106              	.LVL150:
 1107 0000 30B5     		push	{r4, r5, lr}
 1108              		.cfi_def_cfa_offset 12
 1109              		.cfi_offset 4, -12
 1110              		.cfi_offset 5, -8
 1111              		.cfi_offset 14, -4
 1112 0002 85B0     		sub	sp, sp, #20
 1113              		.cfi_def_cfa_offset 32
 1114 0004 0C46     		mov	r4, r1
 1115 0006 1546     		mov	r5, r2
 473:FatFs_Library/sdcard.c **** 	DRESULT res;
 474:FatFs_Library/sdcard.c **** 	BYTE n, csd[16];
 475:FatFs_Library/sdcard.c **** 	DWORD cs;
 476:FatFs_Library/sdcard.c **** 
 477:FatFs_Library/sdcard.c **** 
 478:FatFs_Library/sdcard.c **** 	if (disk_status(drv) & STA_NOINIT) return RES_NOTRDY;	/* Check if card is in the socket */
 1116              		.loc 1 478 0
 1117 0008 FFF7FEFF 		bl	disk_status
 1118              	.LVL151:
 1119 000c 10F0010F 		tst	r0, #1
 1120 0010 60D1     		bne	.L112
 1121              	.LVL152:
 479:FatFs_Library/sdcard.c **** 
 480:FatFs_Library/sdcard.c **** 	res = RES_ERROR;
 481:FatFs_Library/sdcard.c **** 	switch (ctrl) {
 1122              		.loc 1 481 0
 1123 0012 012C     		cmp	r4, #1
 1124 0014 09D0     		beq	.L108
 1125 0016 14B1     		cbz	r4, .L109
 1126 0018 032C     		cmp	r4, #3
 1127 001a 4CD0     		beq	.L110
 1128 001c 4FE0     		b	.L117
 1129              	.L109:
 482:FatFs_Library/sdcard.c **** 		case CTRL_SYNC :		/* Make sure that no pending write process */
 483:FatFs_Library/sdcard.c **** 			if (select()) res = RES_OK;
 1130              		.loc 1 483 0
 1131 001e FFF7FEFF 		bl	select
ARM GAS  C:\Users\Sava\AppData\Local\Temp\ccqwyLbK.s 			page 30


 1132              	.LVL153:
 1133 0022 0028     		cmp	r0, #0
 1134 0024 4DD1     		bne	.L114
 480:FatFs_Library/sdcard.c **** 	switch (ctrl) {
 1135              		.loc 1 480 0
 1136 0026 0124     		movs	r4, #1
 1137 0028 50E0     		b	.L107
 1138              	.L108:
 484:FatFs_Library/sdcard.c **** 			break;
 485:FatFs_Library/sdcard.c **** 
 486:FatFs_Library/sdcard.c **** 		case GET_SECTOR_COUNT :	/* Get number of sectors on the disk (DWORD) */
 487:FatFs_Library/sdcard.c **** 			if ((send_cmd(CMD9, 0) == 0) && rcvr_datablock(csd, 16)) {
 1139              		.loc 1 487 0
 1140 002a 0021     		movs	r1, #0
 1141 002c 0920     		movs	r0, #9
 1142 002e FFF7FEFF 		bl	send_cmd
 1143              	.LVL154:
 1144 0032 0028     		cmp	r0, #0
 1145 0034 47D1     		bne	.L115
 1146              		.loc 1 487 0 is_stmt 0 discriminator 1
 1147 0036 1021     		movs	r1, #16
 1148 0038 6846     		mov	r0, sp
 1149 003a FFF7FEFF 		bl	rcvr_datablock
 1150              	.LVL155:
 1151 003e 0028     		cmp	r0, #0
 1152 0040 43D0     		beq	.L116
 488:FatFs_Library/sdcard.c **** 				if ((csd[0] >> 6) == 1) {	/* SDC ver 2.00 */
 1153              		.loc 1 488 0 is_stmt 1
 1154 0042 9DF80030 		ldrb	r3, [sp]	@ zero_extendqisi2
 1155 0046 9B09     		lsrs	r3, r3, #6
 1156 0048 012B     		cmp	r3, #1
 1157 004a 10D1     		bne	.L111
 489:FatFs_Library/sdcard.c **** 					cs = csd[9] + ((WORD)csd[8] << 8) + ((DWORD)(csd[7] & 63) << 16) + 1;
 1158              		.loc 1 489 0
 1159 004c 9DF80930 		ldrb	r3, [sp, #9]	@ zero_extendqisi2
 1160 0050 9DF80820 		ldrb	r2, [sp, #8]	@ zero_extendqisi2
 1161 0054 03EB0222 		add	r2, r3, r2, lsl #8
 1162 0058 9DF80730 		ldrb	r3, [sp, #7]	@ zero_extendqisi2
 1163 005c 1B04     		lsls	r3, r3, #16
 1164 005e 03F47C13 		and	r3, r3, #4128768
 1165 0062 1344     		add	r3, r3, r2
 1166 0064 0133     		adds	r3, r3, #1
 1167              	.LVL156:
 490:FatFs_Library/sdcard.c **** 					*(DWORD*)buff = cs << 10;
 1168              		.loc 1 490 0
 1169 0066 9B02     		lsls	r3, r3, #10
 1170              	.LVL157:
 1171 0068 2B60     		str	r3, [r5]
 1172              	.LVL158:
 491:FatFs_Library/sdcard.c **** 				} else {					/* SDC ver 1.XX or MMC */
 492:FatFs_Library/sdcard.c **** 					n = (csd[5] & 15) + ((csd[10] & 128) >> 7) + ((csd[9] & 3) << 1) + 2;
 493:FatFs_Library/sdcard.c **** 					cs = (csd[8] >> 6) + ((WORD)csd[7] << 2) + ((WORD)(csd[6] & 3) << 10) + 1;
 494:FatFs_Library/sdcard.c **** 					*(DWORD*)buff = cs << (n - 9);
 495:FatFs_Library/sdcard.c **** 				}
 496:FatFs_Library/sdcard.c **** 				res = RES_OK;
 1173              		.loc 1 496 0
 1174 006a 0024     		movs	r4, #0
ARM GAS  C:\Users\Sava\AppData\Local\Temp\ccqwyLbK.s 			page 31


 1175 006c 2EE0     		b	.L107
 1176              	.L111:
 492:FatFs_Library/sdcard.c **** 					cs = (csd[8] >> 6) + ((WORD)csd[7] << 2) + ((WORD)(csd[6] & 3) << 10) + 1;
 1177              		.loc 1 492 0
 1178 006e 9DF80520 		ldrb	r2, [sp, #5]	@ zero_extendqisi2
 1179 0072 9DF80A10 		ldrb	r1, [sp, #10]	@ zero_extendqisi2
 1180 0076 9DF80930 		ldrb	r3, [sp, #9]	@ zero_extendqisi2
 1181 007a 5B00     		lsls	r3, r3, #1
 1182 007c 02F00F02 		and	r2, r2, #15
 1183 0080 02EBD112 		add	r2, r2, r1, lsr #7
 1184 0084 03F00603 		and	r3, r3, #6
 1185 0088 1344     		add	r3, r3, r2
 1186 008a 0233     		adds	r3, r3, #2
 1187 008c DBB2     		uxtb	r3, r3
 1188              	.LVL159:
 493:FatFs_Library/sdcard.c **** 					*(DWORD*)buff = cs << (n - 9);
 1189              		.loc 1 493 0
 1190 008e 9DF80810 		ldrb	r1, [sp, #8]	@ zero_extendqisi2
 1191 0092 9DF80720 		ldrb	r2, [sp, #7]	@ zero_extendqisi2
 1192 0096 9200     		lsls	r2, r2, #2
 1193 0098 02EB9111 		add	r1, r2, r1, lsr #6
 1194 009c 9DF80620 		ldrb	r2, [sp, #6]	@ zero_extendqisi2
 1195 00a0 9202     		lsls	r2, r2, #10
 1196 00a2 02F44062 		and	r2, r2, #3072
 1197 00a6 0A44     		add	r2, r2, r1
 1198 00a8 0132     		adds	r2, r2, #1
 1199              	.LVL160:
 494:FatFs_Library/sdcard.c **** 				}
 1200              		.loc 1 494 0
 1201 00aa 093B     		subs	r3, r3, #9
 1202              	.LVL161:
 1203 00ac 02FA03F3 		lsl	r3, r2, r3
 1204              	.LVL162:
 1205 00b0 2B60     		str	r3, [r5]
 1206              	.LVL163:
 1207              		.loc 1 496 0
 1208 00b2 0024     		movs	r4, #0
 1209 00b4 0AE0     		b	.L107
 1210              	.LVL164:
 1211              	.L110:
 497:FatFs_Library/sdcard.c **** 			}
 498:FatFs_Library/sdcard.c **** 			break;
 499:FatFs_Library/sdcard.c **** 
 500:FatFs_Library/sdcard.c **** 		case GET_BLOCK_SIZE :	/* Get erase block size in unit of sector (DWORD) */
 501:FatFs_Library/sdcard.c **** 			*(DWORD*)buff = 128;
 1212              		.loc 1 501 0
 1213 00b6 8023     		movs	r3, #128
 1214 00b8 2B60     		str	r3, [r5]
 1215              	.LVL165:
 502:FatFs_Library/sdcard.c **** 			res = RES_OK;
 1216              		.loc 1 502 0
 1217 00ba 0024     		movs	r4, #0
 503:FatFs_Library/sdcard.c **** 			break;
 1218              		.loc 1 503 0
 1219 00bc 06E0     		b	.L107
 1220              	.LVL166:
 1221              	.L117:
ARM GAS  C:\Users\Sava\AppData\Local\Temp\ccqwyLbK.s 			page 32


 504:FatFs_Library/sdcard.c **** 
 505:FatFs_Library/sdcard.c **** 		default:
 506:FatFs_Library/sdcard.c **** 			res = RES_PARERR;
 1222              		.loc 1 506 0
 1223 00be 0424     		movs	r4, #4
 1224 00c0 04E0     		b	.L107
 1225              	.L114:
 483:FatFs_Library/sdcard.c **** 			break;
 1226              		.loc 1 483 0
 1227 00c2 0024     		movs	r4, #0
 1228 00c4 02E0     		b	.L107
 1229              	.L115:
 480:FatFs_Library/sdcard.c **** 	switch (ctrl) {
 1230              		.loc 1 480 0
 1231 00c6 0124     		movs	r4, #1
 1232 00c8 00E0     		b	.L107
 1233              	.L116:
 1234 00ca 0124     		movs	r4, #1
 1235              	.LVL167:
 1236              	.L107:
 507:FatFs_Library/sdcard.c **** 	}
 508:FatFs_Library/sdcard.c **** 
 509:FatFs_Library/sdcard.c **** 	deselect();
 1237              		.loc 1 509 0
 1238 00cc FFF7FEFF 		bl	deselect
 1239              	.LVL168:
 510:FatFs_Library/sdcard.c **** 
 511:FatFs_Library/sdcard.c **** 	return res;
 1240              		.loc 1 511 0
 1241 00d0 2046     		mov	r0, r4
 1242 00d2 00E0     		b	.L106
 1243              	.LVL169:
 1244              	.L112:
 478:FatFs_Library/sdcard.c **** 
 1245              		.loc 1 478 0
 1246 00d4 0320     		movs	r0, #3
 1247              	.L106:
 512:FatFs_Library/sdcard.c **** }
 1248              		.loc 1 512 0
 1249 00d6 05B0     		add	sp, sp, #20
 1250              		.cfi_def_cfa_offset 12
 1251              		@ sp needed
 1252 00d8 30BD     		pop	{r4, r5, pc}
 1253              		.cfi_endproc
 1254              	.LFE75:
 1255              		.size	disk_ioctl, .-disk_ioctl
 1256 00da 00BF     		.data
 1257              		.set	.LANCHOR0,. + 0
 1258              		.type	Stat, %object
 1259              		.size	Stat, 1
 1260              	Stat:
 1261 0000 01       		.byte	1
 1262              		.bss
 1263              		.set	.LANCHOR1,. + 0
 1264              		.type	CardType, %object
 1265              		.size	CardType, 1
 1266              	CardType:
ARM GAS  C:\Users\Sava\AppData\Local\Temp\ccqwyLbK.s 			page 33


 1267 0000 00       		.space	1
 1268              		.text
 1269              	.Letext0:
 1270              		.file 2 "FatFs_Library\\integer.h"
 1271              		.file 3 "FatFs_Library\\diskio.h"
 1272              		.file 4 "c:\\program files (x86)\\cypress\\psoc creator\\4.2\\psoc creator\\import\\gnu\\arm\\5.4.
 1273              		.file 5 "c:\\program files (x86)\\cypress\\psoc creator\\4.2\\psoc creator\\import\\gnu\\arm\\5.4.
 1274              		.file 6 "Generated_Source\\PSoC5/SPI.h"
 1275              		.file 7 "Generated_Source\\PSoC5/CyLib.h"
 1276              		.file 8 "Generated_Source\\PSoC5/SPI_SS.h"
 1277              		.file 9 "Generated_Source\\PSoC5/core_cm3.h"